(dp1
S'building_y'
p2
(dp3
I30896504
(lp4
F557.68165320128446
aF526.15996262973999
aF524.73986054639443
aF525.66954795800143
aF527.61504993096185
aF552.09754651389233
aF583.17430263479412
aF586.32202154468109
aF595.58669308269884
aF594.33237664648505
asI261316395
(lp5
F160.91154491063151
aF154.25581168520353
aF153.55715990908382
aF147.41224032236988
aF132.09501130659336
aF135.72358129472127
aF138.64581253670292
aF154.76796099435842
aF166.05126851879228
aF167.78667262972445
aF176.8538702688557
aF158.99614498487341
aF163.52595207580083
asI30859396
(lp6
F436.93488840772392
aF421.87210076890545
aF418.7770175717327
aF417.40977196822058
aF391.67328479502999
aF363.60577463769795
aF413.38855905495171
aF414.97381779391583
aF418.89525134136039
aF423.57542889678695
aF424.37903390930614
aF464.26334552264024
aF464.41351010211037
aF473.54861152319341
aF479.6414310561525
aF469.63665589145671
aF440.42019088505219
asI26447622
(lp7
F313.7908526885027
aF273.73219701205574
aF270.26155129543554
aF263.68145502692147
aF266.13043808273176
aF262.84038419722037
aF279.64527104555111
aF267.22115226541973
aF245.10513261361012
aF240.59818515123379
aF235.4898902407277
aF239.80904750349262
aF230.786919120699
aF243.6316802499737
aF249.09303247929461
aF251.72958171585663
aF252.06763033384411
aF286.58292959628437
aF284.56966384973651
aF288.79109411824948
aF290.20338482883705
aF298.49599982516634
asI222825537
(lp8
F263.88085720265138
aF271.65597376777185
aF277.01218903946881
aF266.37357219993544
aF267.83093952884661
aF255.95286463897037
aF254.64574215341807
aF246.37394096961179
aF241.11542878534883
aF239.28228698125696
aF234.71489972148683
aF236.06723164380779
aF230.68099616842474
aF233.35561769266795
aF212.59938950393953
aF207.7160196499276
aF192.5413442987585
aF202.72132494303654
aF199.58120464293663
aF211.88741925836456
aF213.90822183739377
aF223.50242501671619
aF241.44924411122312
aF236.09245946240469
aF256.81877215067198
aF262.33334364284167
asI26447626
(lp9
F382.8197428038784
aF339.74263419268482
aF324.01212817153032
aF333.94208180117585
aF331.79360460803548
aF335.79712345594606
aF338.32120878791534
aF345.54705757378173
aF340.5589871295582
aF349.82787688906251
aF352.99800481450097
aF356.88882629599755
aF358.90959674559218
aF367.66016900753971
asI222831554
(lp10
F340.90330319874903
aF344.82461559466691
aF346.99489865840701
aF356.85077264727448
aF354.67299790273188
aF398.3109400128709
aF396.62885550672678
aF387.2311611247452
aF382.90436133595421
aF404.57261796961046
aF372.05363731212753
aF345.66070577111475
aF339.43338975397586
aF331.83109450698055
asI26447631
(lp11
F458.58529926854595
aF492.74405043278506
aF490.67095845206194
aF492.42137304200116
aF483.63326912355251
aF481.75516602987989
aF479.80976103979026
aF470.48687192275787
aF471.12528357713512
aF468.7062851116778
aF465.92713967098234
aF463.03485297823528
aF465.81399922557284
aF448.07724338076383
aF445.81636493228643
aF436.40336360525646
aF442.54755112588799
aF439.58767025295867
aF445.536550005913
aF443.51570291547
aF443.55314643525867
aF444.28923659452971
aF445.35581490518911
aF446.88073062965242
aF451.46327105925474
aF462.45212379713763
aF471.86512291767031
asI30924632
(lp12
F584.77216462624574
aF549.29855481790253
aF549.27611202083347
aF543.79205178540417
aF543.90436489612011
aF525.05573864762573
aF525.54990668199866
aF530.12494802860999
aF531.16569941981913
aF529.49044826309603
aF529.97713889689817
aF555.81948946235684
aF554.05276790064454
aF563.65360939914183
aF565.39775400682777
aF568.25994546412721
aF568.32730221071438
aF574.75032801515556
aF574.78775339392678
aF577.44711134628096
aF577.39472154009479
aF582.86368418488735
aF582.78135606123203
aF586.82298229718697
asI30924926
(lp13
F457.30564262614109
aF449.60427065579154
aF442.08326455472189
aF458.79747473271664
aF461.23936726952149
aF462.49387143534483
aF459.42084486081092
aF462.11013787531829
aF466.30268309395007
aF471.76390233261816
aF480.28428903004198
aF477.7226937649105
aF480.85586234962301
asI26447635
(lp14
F417.20219998526295
aF463.38725609698668
aF451.40706527807447
aF425.96312577969456
aF406.89236539369779
aF405.31480392598525
aF403.64732678731804
aF418.59663755108494
aF423.75679965603359
aF432.95930324331283
aF425.30543588030548
aF431.70588815856382
aF430.37641121815568
aF428.73897688429537
aF425.7490933222013
aF419.89788514365949
aF418.31291927201715
aF416.47992646284121
aF414.87992646306554
aF411.22948469083804
aF402.59039848297886
aF404.40810856568532
aF370.9863561181071
aF380.86356286986774
aF384.37173951234672
aF387.99212199062958
aF386.46715372661055
aF407.91895432768126
aF404.64365584774038
asI56008695
(lp15
F659.20443067410577
aF650.94991052979731
aF656.85500651543907
aF652.93428779840656
aF672.21237095353013
aF684.38766041925214
asI30925209
(lp16
F276.97362740301656
aF270.81376207906601
aF273.9609298312954
aF274.6217369654546
aF276.6571092855159
aF280.10467143396909
aF283.24432355942594
aF287.15769053398441
aF290.43261190955928
aF293.62496120036514
aF295.87090257032293
aF301.64697588962503
aF307.04065434140568
aF301.27210099642753
aF304.25443530837288
aF298.70372154588881
aF297.25411962871294
aF294.4299570365684
aF291.27525058232197
aF290.01335544567604
aF289.78798883342535
aF286.49800374928594
aF282.82502749211608
aF281.05968209113797
asI30896795
(lp17
F483.70176335291859
aF478.91704007027886
aF480.12656531127948
aF475.28174312372209
aF474.59058657331417
aF471.15789449136849
aF463.34482469541291
aF464.96727888379519
aF445.50982329566807
aF443.44419846030809
aF438.93669906770822
aF432.67128337216224
aF437.52362211542686
aF436.3516760140634
aF441.69975600220602
aF442.96185256935399
aF446.34946566871469
aF447.3561377244875
aF454.95126900241422
asI261468572
(lp18
F130.5481621160437
aF130.54823190310495
aF147.57104636516789
aF147.77379614195468
asI30896555
(lp19
F555.79236964433653
aF552.94513718443898
aF543.31247406644593
aF544.10095502830586
aF564.98394727714481
aF568.34953651948717
aF578.06492441466173
aF577.53178871938121
asI54216353
(lp20
F604.02519653411389
aF613.35539578910971
aF612.2305518392734
aF602.90783465992445
asI178744355
(lp21
F672.30120325908626
aF674.68627886195043
aF687.35835643622829
aF684.99585412203919
aF684.17708554957903
aF684.07208412082753
aF686.67862599846751
aF686.14612528753378
aF671.19041770349918
aF671.75293763374236
aF672.88719623838506
aF672.94720405692681
asI54216358
(lp22
F648.66039395810878
aF644.84412456764562
aF644.70904682915352
aF642.4027582421146
aF642.57536584223044
aF639.86341167519174
aF642.21231211747988
aF645.5552901653565
aF645.8254514989261
aF651.30943588954165
asI30924849
(lp23
F440.23494527270122
aF416.75233219633481
aF411.35769217950894
aF413.91178367324244
aF410.17010591659312
aF407.72869736860446
aF404.36270123502356
aF406.76654690151457
aF402.01058626141412
aF400.21521640340808
aF398.59984711092824
aF399.95952036634822
aF396.9767257098502
aF418.40090588093716
aF422.27781078155505
aF425.77088021968018
aF427.31112801658907
aF438.96219615022011
aF449.77407068334475
aF440.65451097361415
aF442.14217941384203
aF438.02560081512064
aF440.0767814725375
aF438.13868307153268
asI54216360
(lp24
F681.54135458921837
aF680.97825222453423
aF682.968984330951
aF680.71664474661543
aF679.13157238826761
aF676.39131013830035
aF678.17922670020187
aF675.94201916080272
aF674.15409911894903
aF671.70651798714846
aF673.22400827143542
aF671.56498884391635
aF669.50663655864821
aF668.80844725617396
aF657.88564443305449
aF658.56881642749829
aF647.84133341940174
aF644.84568257918602
aF629.58829582128851
aF634.1005076292538
aF633.68733464468698
aF634.16773840098597
aF634.41522682692562
aF634.40712852590002
aF633.48312536114884
aF633.57262875915637
aF633.96275472815694
aF634.97641324358972
aF635.99761993596826
aF637.5672023029548
aF639.07676091106498
aF640.86425349435353
aF642.9448017158262
aF645.55743918613211
aF653.66302305595275
aF654.84925926999267
aF659.5293443414987
aF657.49490950124277
asI54216361
(lp25
F620.49331214409438
aF619.35895508410033
aF619.34414805431038
aF615.64809476512926
aF615.64073526063396
aF632.63357165898071
aF632.21475715307827
aF635.40749659995447
aF635.41472748529884
aF633.77704130263555
aF634.30187087020033
aF635.93955438778767
aF635.85548166208662
aF643.8786139821899
aF643.89324150373534
aF642.93917968225969
aF642.88367004710858
aF655.69206930779262
aF655.74772608074704
aF648.3706543580588
aF648.36343791301215
aF648.91934756477417
aF648.46414571156959
aF636.17397118085103
aF636.18139848898909
aF631.99703123835593
aF631.98226237118388
aF642.29667655308685
aF641.86393303762782
aF630.52777024308511
aF630.50588676655843
aF634.50998357231163
aF634.51008048113954
aF637.42488256539934
aF637.41767441977458
aF634.86346503826701
aF634.85607870957722
aF630.33362447726483
aF630.32627575553818
aF638.04149405450323
aF637.89279915589827
aF633.73092785525478
aF633.76247533202445
aF610.06076889019346
aF610.26831453270051
aF596.25771614098903
aF597.7161671550067
aF604.53734960090071
aF605.45894666408196
aF606.78110625683371
aF607.162164062089
aF620.61665971315972
asI222831274
(lp26
F341.13135082920775
aF337.90154583245243
aF322.76482964675023
aF302.69492830671072
aF287.18269648293153
aF335.05879601631295
aF350.69873657323888
aF326.01717690554818
asI54216363
(lp27
F599.12116245948516
aF591.12062319825111
aF592.05757158653
aF594.34128501624571
aF594.44623424976066
aF600.15551776502832
asI54216365
(lp28
F612.5071069242133
aF609.21687492276578
aF609.34472925158866
aF604.01124714060313
aF604.16917829811644
aF599.73712697721407
aF599.56415477002406
aF596.28894479780308
aF596.16109252494084
aF592.8933950501895
aF591.6525037046714
aF592.69666129311304
aF592.48608778368816
aF583.65205940516489
aF584.68236722444101
aF569.66598737975551
aF569.06437117868745
aF570.37895994536734
aF568.93507137365725
aF567.3332695543296
aF590.16191099775131
aF590.40256755977236
aF594.95477497116292
aF595.39848764895589
aF609.12272302935492
asI54216366
(lp29
F601.93212444468895
aF604.40366553629667
aF605.26709509629723
aF613.94377640486618
aF613.0202901368524
aF617.70795809624644
aF614.46449950820522
aF609.48383849297556
aF608.59788849454969
aF599.71082330319155
aF600.66435739772828
aF598.68862191725657
asI222830383
(lp30
F7.0011301683740221
aF8.5035182594255065
aF8.3081982044348113
aF9.6753699121792813
aF9.3222616898974682
aF28.237281421012721
aF28.552737723165656
aF38.693806638325356
aF36.598623015752246
aF26.464891846690314
aF26.487384655120138
aF11.696188528411097
aF10.449200875452938
aF7.2415747439640938
aF4.9579236034993528
aF4.4996894254238766
aF4.6649518283721738
aF6.4227584400915454
aF7.714821552811614
aF7.7974494903062439
aF4.852747996649339
aF4.8677549740949191
aF8.1579967630958183
aF8.4209045356966215
aF4.7700926037766029
asI222830384
(lp31
F36.891775354403777
aF30.47646770519636
aF30.476418536493238
aF36.884203778036024
asI222822705
(lp32
F548.30810071754991
aF539.8013273383574
aF537.48785174866453
aF510.99355420195548
aF506.83855963722391
aF504.47970183674306
aF514.02939868355054
aF499.2610178288918
aF483.21261610417622
aF482.52904209198647
aF480.38017979283222
aF478.93007480287349
aF480.38737461350206
aF482.42972783237337
aF469.77909946070639
aF471.24329979571291
aF479.47671288661087
aF485.79896003503319
aF481.14139906112359
aF482.1024964915685
aF480.60005928352325
aF481.31337747857373
aF482.10928599103289
aF483.61923314827897
aF484.62537981651059
aF494.07569086682912
aF498.3480015313944
aF508.10627849007705
aF518.6608496770458
aF519.13386892313531
aF537.30576841815673
aF529.00920649182251
asI222822706
(lp33
F684.07775312437138
aF681.16352146981569
aF677.59498964449256
aF680.5017100223921
asI135677815
(lp34
F202.33099672414022
aF213.62045188518761
aF209.18097803592133
aF226.50950596344933
aF287.35590780429851
aF272.8517599823785
aF254.7180630947598
aF245.44916617184171
asI54024501
(lp35
F149.57886274120287
aF125.05740700901715
aF127.10824648124655
aF123.84024273098665
aF123.80264223748996
aF124.54633792782637
aF126.13893048918088
aF127.98696583755306
aF131.57050501415767
aF145.21268877384296
aF157.80407687263843
aF159.84740227991381
aF164.52789048641117
aF165.88760136518545
aF169.01295144206779
aF167.30015537858876
aF176.53345425791571
aF174.02434406562278
aF174.74559318319365
aF169.04375765053157
aF168.17227503860551
aF166.75245030326951
aF159.22461313451979
asI54216374
(lp36
F578.63582722288334
aF588.79241833290814
aF585.12080051661883
aF590.13901554093968
aF586.39981283737438
aF571.35263981903074
aF574.6113413092703
aF572.84595158120715
aF573.28144460990177
aF574.92663617855953
asI54216375
(lp37
F629.09078623895232
aF634.07894039132987
aF634.57329140327488
aF639.32855278862633
aF638.77432200635167
aF638.11324137040901
aF638.07578122098812
aF634.46988625626034
aF634.49985289694405
aF633.62842800266787
aF632.85756336522491
aF627.93699763924349
asI118781383
(lp38
F326.5891108551495
aF368.58565675198503
aF366.50473587304009
aF374.00861422906235
aF381.62614175799433
aF382.66271206296739
aF387.9739591052047
aF386.45666042194341
aF391.81299064608692
aF379.51683405440292
aF381.51513093492542
aF378.1199706797957
aF375.57326940403044
aF342.44770708457594
asI30859594
(lp39
F377.74231955127652
aF434.72765914180735
aF443.43561766346301
aF386.45014001605074
asI160546421
(lp40
F742.9687458313914
aF787.97571456159608
aF783.43419702604956
aF817.12015596218998
aF815.14595918233204
aF841.21435978848024
aF843.67641412346916
aF875.8900312819743
aF869.89267949873863
aF856.67810418130557
aF851.91164226068611
aF865.70474597951682
aF859.4670698535848
aF829.65698252768209
aF828.64360430149065
aF790.42693712264906
aF791.85321631172314
aF766.49822707654891
aF774.41796586264581
aF770.75936528948762
aF771.72023565875213
aF731.19775356521143
asI30922162
(lp41
F655.04590779636874
aF627.41030323767802
aF627.44801647299175
aF624.13534808062457
aF624.6408768468774
aF606.65024434438124
aF606.58988845358783
aF603.983312450276
aF603.90786272325408
aF601.72194660952425
aF601.40509195164498
aF604.93560147161293
aF604.88280445152895
aF600.45088975294129
aF600.40563703523298
aF597.82160631398824
aF597.52742433608682
aF604.64100642624589
aF604.52032484457618
aF599.8780961508387
aF599.60653062170286
aF605.44310747664076
aF605.37522936712571
aF599.52363174520929
aF599.36522688284026
aF583.51559967007677
aF583.41754999877821
aF599.62772612442461
aF599.57491307081443
aF604.19458455601148
aF604.11913091061524
aF599.52199588654571
aF599.47672664818901
aF595.86362013037353
aF595.57698466167051
aF604.43320868561887
aF604.33516361107127
aF599.45259944164252
aF599.16593123546534
aF604.60434443378665
aF604.5289048267714
aF624.8928958576679
aF625.33802862709649
aF653.55925086459877
asI222825538
(lp42
F342.53275864433994
aF361.0527040312511
aF345.30000353083381
aF340.60427365089174
aF311.86322965241214
aF305.53722041786079
aF301.86383223698931
aF297.74668710804082
aF298.94110036714881
aF280.69206953736273
aF279.74555802875392
aF272.24767544689149
aF273.90782253437948
aF273.07389209076422
aF279.52667627062937
aF280.13503969000016
aF284.7023119918228
aF286.43767750344051
aF299.77139579310131
aF309.58198966949857
aF309.94246552119051
aF315.08813442060256
aF317.08641320239173
aF319.39257303062311
aF321.81170799811912
aF324.17050315177443
aF327.10809108097601
aF326.68751484080059
aF328.92639651645743
aF326.65027973794662
aF341.51113053888355
asI222825547
(lp43
F471.12506139998703
aF466.76807507075227
aF465.51326638680962
aF469.87776294422662
asI58064836
(lp44
F484.72291740722517
aF485.65211765124519
aF491.14358943282497
aF491.00871103784931
aF492.93185385318446
aF492.1375670399612
asI30922181
(lp45
F645.95672592799951
aF646.50518965922549
aF647.45151429001385
aF650.56129320960963
aF651.06468467272077
aF651.92839983727708
aF654.69264811906339
aF656.19529741026486
aF654.6932519366128
aF654.58121087722827
aF656.12138200549691
aF655.03259082695081
aF653.50023783662618
aF652.47866997972403
aF651.24661237162115
aF650.2627454269757
aF648.06936804714644
aF647.04014150983835
aF646.00367768490537
aF643.46477726651324
aF642.63838650698631
aF641.90989051435258
aF638.64987176082332
aF638.09390003273461
aF637.38041654665744
aF634.07531727556432
aF633.43671412223227
aF632.76080220649669
aF628.9900087242786
aF628.17857051641715
aF624.47537018760454
aF623.34883404467371
aF620.45688351846343
aF619.38263231469818
aF618.75927486492969
aF615.8673206541157
aF615.23623710692664
aF614.72555038495977
aF611.39042199349615
aF610.6541759098584
aF610.03082631052348
aF606.7858321005391
aF605.92185983404784
aF605.07319882212209
aF602.52678529854825
aF601.49757867344317
aF600.859207643893
aF597.78695790511733
aF596.53971812801308
aF597.59862282801225
aF597.48537756576025
aF596.9520195516144
aF595.76495137674533
aF597.33456557375882
aF600.56452991963897
aF600.99277970298692
aF601.67620455994609
aF601.49410312964437
aF601.28964046266583
aF600.26044191143149
aF599.6220773652999
aF596.54234293047716
aF595.30262620072745
aF596.35401061673736
aF596.24827902407355
aF595.7149257388146
aF594.52786840888245
aF596.0974683991991
aF599.32740572392584
aF599.7556515874229
aF600.43155809820701
aF603.54881460356478
aF604.54045808548688
aF605.26143253912153
aF608.20593717013605
aF609.1074540935499
aF609.69319151432035
aF613.38133421464727
aF614.19270841963373
aF614.77845152651742
aF618.03091781371495
aF618.76723471282003
aF627.40543090254425
aF628.20895612077129
aF631.28115200799186
aF632.00991315329327
aF632.5506105430602
aF635.85566403376242
aF636.62948550972874
aF637.35045907493145
aF640.02454563776746
aF640.79837290926002
aF641.51931622941902
aF644.71920613724785
aF645.26766486007341
aF646.20646998845905
aF649.32373329212612
aF649.82712014508604
aF650.69082799032981
aF653.44754067862834
aF654.95768772894178
aF653.45565485991312
aF653.34361234821517
aF654.8837707327549
aF653.79498833023763
aF651.23357696593746
aF650.00904316206868
aF649.02518451518381
aF646.83182625990673
aF645.80260896370703
aF644.76615269400315
asI118781382
(lp46
F339.53291437407688
aF330.96226888218348
aF337.97133280504016
aF325.93783355991246
aF296.9701431426833
aF296.69972690141236
aF287.17410609114717
aF290.78716736742632
aF288.64616052532136
aF294.56526110146734
aF296.88656328226904
aF300.77753886475841
aF310.31818386707079
aF309.40177698078776
aF318.7696692647707
aF320.33206714029086
aF321.76692692387712
aF328.36204095930987
asI30922695
(lp47
F145.87184470665738
aF127.16785293495603
aF124.9593319601356
aF117.67298102909227
aF113.23349087597568
aF109.75548733824706
aF108.03523462482156
aF107.3666049011746
aF108.06512247176993
aF113.68385402850843
aF112.17394669162337
aF117.11662226031582
aF114.99825179224719
aF113.54850254763222
aF99.042950412440803
aF111.54232586815831
aF126.04787978398745
aF124.29766438754463
aF126.61134110505762
aF131.65164991284081
aF132.97376525374148
aF137.92392723064563
aF141.04878605403698
aF144.60185619495752
aF147.88453972734638
aF149.89775087039004
aF151.06218518630882
aF150.62658308109292
aF148.71115113446683
aF144.05394342517818
asI160545994
(lp48
F126.68587009124587
aF126.61133235445482
aF126.34138549225641
aF123.94525529211799
aF123.90781860031217
aF114.22564090081457
aF114.27058025122307
aF81.280608490114915
aF81.617964436872825
asI49888203
(lp49
F52.225009936347412
aF52.472724823786798
aF56.273899020771623
aF56.288908269921393
aF66.52803711525587
aF66.565566468105573
aF75.655324759452256
aF75.797905542856029
aF96.185968617138727
aF95.96841493084446
aF98.717882413365217
aF98.522848556798706
aF95.382737213589053
aF95.157670369348878
aF74.927178054416302
aF75.152297609067148
aF72.628189775863035
aF72.590663436573507
asI30924877
(lp50
F458.39840322354996
aF442.65763575667279
aF460.58864917515655
aF472.80563644023943
aF475.2094639122713
aF477.40342530581057
aF475.6756734177705
aF477.00557481359778
asI49888205
(lp51
F61.991331268029903
aF98.568623279018041
aF98.553642748150452
aF100.84488930423498
aF100.77009025830807
aF103.73745204114664
aF103.70006829068586
aF93.205356234464858
aF93.18290182010621
aF65.206995389262673
aF65.236973705208513
aF63.163573682085499
aF63.163584052730386
aF56.162101768473839
aF56.199588369531085
aF59.07680307131114
aF59.174241331469716
aF61.99134700884963
asI49888209
(lp52
F58.640127411177943
aF58.865263735953839
aF60.540474905062375
aF60.562989406750575
aF66.294763907798597
aF66.279762248343644
aF72.995631548540416
aF72.965618443890165
aF86.389851879704239
aF86.2998413846273
aF73.641828632876127
aF73.619319242571862
aF67.789870458736104
aF67.707337487861537
asI54216355
(lp53
F606.84160966356922
aF596.28710806143079
aF596.30200928394311
aF592.44830264185384
aF592.43340062676361
aF577.41671453598349
aF577.54349820341417
aF571.36856224910014
aF571.48788912627549
aF577.76047147012525
aF578.0066005982444
aF582.43119920666095
aF582.43861672763433
aF584.46687013202109
aF584.48919868804046
aF591.49793986687337
aF591.4531714013209
aF607.3336528844676
asI30922712
(lp54
F215.15927521468601
aF218.93075813558326
aF223.90430483313105
aF227.66038957018768
aF228.03603614513142
aF236.7576570452363
aF236.36698358251809
aF240.2056942081787
aF239.12382803725382
aF238.5453923340302
aF235.29980044104474
aF262.86179309000983
aF261.33665636134464
aF262.18552422699713
aF258.06090012410647
aF258.7820615481802
aF254.09397864582266
aF255.21327938621414
aF251.50189119703487
aF250.5253211287432
aF239.24096262997901
aF240.14992113767866
aF233.90674979092003
aF233.0428651037715
aF228.51264110253828
aF227.8440703238235
aF227.2129956810185
aF223.97530996490931
aF223.40433865249875
aF216.95901149835058
aF193.88198189744762
aF200.43308858669869
aF214.94641406488063
aF236.29792068761694
aF239.34032469599231
aF242.45067351499819
aF213.39375078127469
asI160546650
(lp55
F453.57101319888142
aF412.73208704078581
aF413.65611475422281
aF407.21137006651946
aF401.62965012010471
aF400.43534228143142
aF395.87531796628127
aF396.83677311779888
aF389.0464356284067
aF390.30834439415997
aF389.51954559008198
aF394.01133710059463
aF395.09311758201164
aF396.3775579389785
aF398.70639375558119
aF439.1772585104448
asI54675151
(lp56
F52.162223641228856
aF78.048034896144031
aF78.258229441475805
aF52.379975316045886
asI56008698
(lp57
F531.27118492703494
aF530.37722644688597
aF529.19801743309085
aF527.19224653727895
aF528.52918443176816
aF526.1928757428135
aF539.14912149205963
aF544.39266990253361
asI30861157
(lp58
F214.18648867470827
aF233.83018046112397
aF246.2238853703831
aF249.96484047588791
aF253.75054369010991
aF256.10163118094385
aF258.96356155039911
aF261.14948476704637
aF262.75703977258047
aF263.91398295406952
aF262.59960729549346
aF258.03272799099057
aF261.60843477744999
aF253.97692231087692
aF255.82487360194244
aF255.78745836689876
aF253.94718646897718
aF251.28054435109405
aF249.98851624379094
aF238.45856629484621
aF238.97693763045484
aF238.92445296796473
aF236.88885760500386
aF234.0193801980914
aF231.69818293067789
aF223.77368223879628
aF219.55196083766697
aF216.35961898583321
aF213.92588642919563
aF210.86111626055353
aF208.17188117128899
aF206.66196966601655
aF206.12104007844852
aF206.16600871275983
aF207.78091305913077
aF211.03335884817307
aF207.75814551524962
aF220.19702772023882
aF200.77869496720129
asI54029691
(lp59
F200.87666800479514
aF202.82960038917201
aF204.71498545959841
aF205.4361460103394
aF204.55738098011591
aF203.41566615124856
aF203.40829110970412
aF203.37118390256771
aF197.39210827502484
aF197.4440309070028
aF200.04296702037149
asI222831277
(lp60
F302.43549136087933
aF313.9725401618054
aF317.39045469854051
aF320.92066269948816
aF331.99323110652153
aF328.44800053273462
aF331.86593169124563
aF320.23874849834334
aF316.47526832972682
aF313.02015304238233
aF302.22552776974817
aF305.78579808578905
asI222719074
(lp61
F44.565765639747504
aF133.86258941560067
aF123.18895065380588
aF132.12015336126197
aF132.08263686323596
aF133.66005765558822
aF133.44245278912416
aF133.36745634960064
aF69.616971324000346
aF69.294177198592678
aF67.303612245419444
aF67.281093356557605
aF63.600425467626884
aF63.450277878508473
aF57.989361524273974
aF57.606470611463401
aF53.21969462156629
aF53.122091073151346
aF31.556262561767952
aF32.945499435814064
aF34.327627935643875
aF36.61864058348592
aF36.663695956580071
aF34.748259824746178
aF34.838368312359115
aF44.550747987367629
asI222719075
(lp62
F115.48288696829761
aF110.14966992342002
aF110.29972925724991
aF115.64044932248983
asI222719076
(lp63
F105.07184645302225
aF99.610935169205689
aF99.573224258678891
aF105.03412714839359
asI222719077
(lp64
F88.936991922640956
aF88.966900427990396
aF94.232503209846655
aF94.21011460690589
asI222719078
(lp65
F83.476079064675588
aF78.338163887617299
aF78.495784398136223
aF83.626179846083076
asI222719079
(lp66
F126.9142915597328
aF115.78225274687512
aF115.74463247913125
aF112.23676520409086
aF112.1841144709059
aF123.08328450590419
aF123.1284319798494
aF126.86915545870519
asI222822504
(lp67
F406.92207663453195
aF376.29552814349103
aF379.27740077574924
aF371.75039683003422
aF375.13786061919927
aF371.97495263361947
aF363.50201735898685
aF363.76393967728825
aF384.49554127318328
aF384.19605065608158
aF392.2413816115789
aF396.96578384529874
aF400.66919817628326
aF401.99112821324553
aF406.30302083734176
aF404.8233606164801
aF417.87926893121141
aF419.47910517900493
aF423.59571015732899
aF422.07098396457155
aF425.29365874977879
aF426.33017257972438
aF431.50599118546
aF432.66268053746859
aF441.51943779984651
aF416.41017738406396
aF415.10316960961762
aF403.8650893485966
asI222822505
(lp68
F582.58818699370534
aF583.15391034590073
aF572.82574788885415
aF573.05287861175407
aF569.89058753541019
aF569.91346130898717
aF556.4605339134481
aF556.58097479693322
aF543.66136564533622
aF543.8699010778447
aF540.30949680548224
aF540.34674524794082
aF536.98915157171768
aF536.96678762113652
aF531.0027373184173
aF531.07723259955276
aF536.92860522712635
aF536.90623102210452
aF539.68544626429139
aF539.81155129897888
aF519.66605821654036
aF519.68882452259083
aF508.67715245196388
aF508.75908379676758
aF512.84526472472817
aF513.37431324813383
aF519.99928024016447
aF519.96944756149651
aF524.80672702460754
aF524.83650861674164
aF530.86808220255625
aF530.36205416766518
aF542.81590024158561
aF542.88986723675998
aF569.01434837463898
aF568.88032937723267
aF572.53836586423438
aF572.29214665683071
aF593.63949249499797
aF593.64669439699355
aF604.20768301320129
aF604.15522451039328
aF605.75514242253359
aF606.00387310508881
aF603.89318652648046
aF603.91584178379412
aF602.1506729352642
aF601.85509598687202
aF595.48537669035068
aF595.51512228417357
aF590.62516389117991
aF590.59540342696312
asI30922346
(lp69
F381.33323495699517
aF381.06245443860615
aF392.19418540136667
aF392.52530254962352
aF398.24138049735046
aF398.16657244186132
aF399.12050618715227
aF398.95581295127528
aF418.03457595216662
aF417.9742571770924
aF416.19397698823957
aF416.28385192237675
aF417.38044298944919
aF417.59789430888657
aF424.11017718690601
aF424.59030809033567
aF435.23378148624482
aF435.5121621961361
aF456.4761439245197
aF456.68733215992
aF439.84699855457325
aF439.56923723993299
aF435.76100923614484
aF435.41601291102165
aF437.18876465965599
aF437.23402293665333
aF435.18349450322154
aF435.21365864081412
aF436.67094900570635
aF436.7237542970243
aF435.63468463925273
aF435.35001473240379
aF453.62512537356162
aF454.79025139223239
aF435.73396032645479
aF435.70442658202938
aF418.87900730844666
aF418.82563993068771
aF423.91083126987189
aF423.84990756933064
aF417.81831012824256
aF418.23120463588003
aF416.45844099656489
aF416.23286250149624
aF417.32945856342093
aF417.61476307562879
aF398.22800963498304
aF398.10042655096203
aF399.38491640116081
aF399.6029624441237
aF398.52896270450259
aF398.59681515360973
aF390.80754347046707
aF390.24499178866427
aF396.05881464175428
aF396.17219007695536
aF381.43488060441524
aF381.05869867653615
aF359.52359913996082
aF359.72580814923577
aF381.03554975754935
aF380.6818520700977
aF378.90909723940592
aF378.6759979424948
aF379.93785793298122
aF380.73406786969343
aF380.55372338614353
aF378.93870838621945
aF378.88595331064062
aF379.50180827390176
aF380.45574415083337
aF380.13219781984651
aF359.6338369774424
aF359.0998395631903
asI222822503
(lp70
F706.1374520410576
aF691.4438385848124
aF685.71282902471489
aF684.26297821653111
aF663.35939536578348
aF663.38962909559223
aF656.91496958210928
aF655.59282023360674
aF621.76218958794527
aF606.96211054968819
aF608.15622628956066
aF609.79381085453122
aF616.41758806644953
aF648.07737486154372
aF654.44465609620056
aF653.51309950724567
aF654.06874296057526
aF655.02273594238409
aF658.46166856157026
aF695.69502984626297
asI30896763
(lp71
F447.3561377244875
aF456.42230384340291
aF455.63349298508058
aF462.40117589033377
aF467.1040112125072
aF491.35037279378247
aF500.39387974499749
aF495.84880505587807
aF497.6289610921703
aF497.16318656060662
aF505.95879388197108
aF506.6724798871374
aF508.7004983067759
aF532.95841832204621
aF518.87492549475508
aF515.92249550214797
aF517.07171134401369
aF512.21110147610045
aF482.57171512889414
aF483.64600676350733
aF480.47624290294715
aF479.16906225630208
aF471.49251016434334
aF463.25879310609014
aF454.95126900241422
asI26447597
(lp72
F215.46604132238568
aF193.26024824146589
aF173.03021755682019
aF179.67039153506465
aF184.04992068038797
aF184.530655633647
aF175.17063752690231
aF175.26032890371465
aF180.8191433454476
aF180.67563744640321
aF191.14719344699392
aF196.11999423657861
aF217.3713027741106
aF222.02133223869779
aF226.56603209362223
aF241.16222306490289
aF240.65911331316232
aF245.09132883545323
aF244.9190406054644
aF236.32574246409985
aF239.86401898481733
aF232.81057919205705
aF230.72274053277948
aF224.38259157381765
aF225.40390726271283
aF218.15472143726885
aF217.41109007293062
aF222.00098884763324
asI30896622
(lp73
F594.74867017118095
aF594.7260381768358
aF593.81710648013825
aF594.44724491888587
aF604.93366173383833
aF607.58649465399537
aF606.82781881772735
aF609.11933156841656
aF615.0532820897439
aF621.18377414264512
aF610.57804553685048
aF609.35350607859687
aF607.10012821442422
aF600.69191654157783
aF602.5996320274495
aF599.95523141878243
aF596.59751753361218
aF596.91315140915628
aF583.97807481689176
aF584.25613008843629
aF588.32005965146277
aF587.86272955181255
aF584.7002576819059
aF585.35431995440752
aF590.4472810877038
aF592.94222194208817
aF582.15552842785553
aF582.32840502628619
aF583.45518025581293
aF585.25879564267359
aF575.72655348733213
aF570.84284602716389
aF571.72170769855427
aF571.42112555962353
aF567.93566249278388
aF562.11524153600783
aF558.82492615147748
aF558.53972580669813
aF562.10794751114997
aF562.07931224600588
aF561.23797735793346
aF561.37340304911663
aF574.80461545416824
aF576.21034897808715
aF564.59722579733682
aF564.17643987990664
aF561.27697298084149
aF558.50471387790435
aF560.05201704367596
aF558.09117608037866
aF553.98984746476958
aF550.80439773078979
aF553.11782459825179
aF553.21532113979765
aF551.1495442959
aF550.89275374810609
aF554.52841736116591
aF554.48296588938922
aF550.1034212301837
aF551.31930467116058
aF559.52220235985942
aF561.26466111151149
aF559.21356939630027
aF563.64522551242101
aF566.71786583832943
aF567.49907194897162
aF567.34868943485128
aF581.31300156759744
aF580.62885333860322
aF576.58750052692028
aF575.23467676400742
aF565.20641552564484
aF564.31155427785973
aF575.63161540721103
aF575.9697907726561
aF577.32188873311134
aF576.77329589326587
asI56008701
(lp74
F694.37107586665866
aF717.90902886569688
aF701.70793806517406
aF692.31673454011502
aF693.71374256618401
aF689.58911926795736
aF676.26465829630092
aF671.11843625231461
aF665.80819373944166
aF659.30203539717547
aF653.89277632298081
aF659.07532904923369
aF659.48800932871598
aF662.35737837213628
aF665.90271714552875
aF668.33618608486131
aF670.26694763322439
aF672.89572264657727
aF676.57588664190712
aF678.76118671514348
aF679.54172598631521
aF679.49635782646112
aF676.22071551464455
aF689.69511769900237
aF692.36982159052343
aF693.3317361940932
aF693.70781061445291
aF693.53583774241929
aF692.43215657036103
aF697.29969509039267
aF695.90313132350138
asI26447602
(lp75
F101.89138704874546
aF132.64511850125885
aF132.37490622584519
aF155.66185031456087
aF155.12899443219933
aF146.92595421332823
aF146.28799437370614
aF144.04942733811848
aF143.70417111162325
aF131.5497799659943
aF131.45970172578157
aF100.84835577819332
aF100.92343378000672
aF88.348376045913994
aF88.708760117574997
aF85.756557713473342
aF86.574942862580698
aF89.234165725731003
aF89.669624229972641
aF101.69619206422998
asI30922739
(lp76
F218.86314749713364
aF211.61390907853217
aF213.48461748278098
aF191.98473893037786
aF193.0064860824869
aF185.65203617796399
aF184.51008524774352
aF181.16715172932933
aF178.16953907568444
aF177.32065950090023
aF171.40058401176381
aF183.33744897324928
aF185.76408406377715
aF201.00628862203268
aF200.4277995942374
aF206.50513831449166
aF205.65618637288043
aF210.20103932298449
aF212.46992401621469
aF215.10669005968384
asI56008693
(lp77
F536.75606670754382
aF530.74621582762575
aF532.69154805717278
aF530.96371829064265
aF535.62800188624362
aF537.18304905458012
aF545.61779777868514
aF551.80043289823527
asI222823466
(lp78
F564.04424328693642
aF565.74333787259434
aF568.5228931103386
aF568.59026276793043
aF574.83299284283635
aF574.87792061517382
aF577.25180946837236
aF577.19941959419896
aF582.7134572639452
aF582.62362677366275
aF586.31217417045468
aF584.64323399165255
asI222823467
(lp79
F655.8467626552125
aF648.18412113904344
aF649.52058146541913
aF647.58989810610569
aF648.92635999542529
aF652.08155738254163
aF654.74695481887409
aF661.1775372728564
asI26447608
(lp80
F140.46181283113668
aF82.791181999403577
aF83.113610887117304
aF67.571123847121967
aF67.773646976787219
aF73.895962137484062
aF73.985961008015622
aF88.69451314427657
aF88.709520093122492
aF86.944193552081714
aF87.004169161435343
aF127.23102157192321
aF127.18607793442266
aF125.90152159507332
aF125.88652903383088
aF129.79278296452256
aF129.49316849832596
aF121.78577721589804
aF121.71834445366126
aF142.1362005142114
aF142.03883545167886
aF139.64998630003242
aF139.6350223465333
aF140.61159636714154
asI30924855
(lp81
F398.86095805835993
aF425.47581624655055
aF431.05074537559813
aF404.43584487956741
asI26447610
(lp82
F162.03562309713078
aF207.67181354111321
aF207.88210928170375
aF214.36508684814828
aF213.41124701892187
aF220.69104826638403
aF190.22988870503198
aF179.50937341900249
aF175.54295838342068
aF176.04618328961041
aF159.16640135838509
aF159.42928380951875
aF152.93879992379954
aF155.04187117502988
aF161.84785131369992
asI56008699
(lp83
F687.62960313658186
aF707.92397705413157
aF700.73422820229655
aF629.9134999953352
aF636.68267789711933
aF640.27362155201718
aF647.0418342074621
aF651.79682763203061
aF654.77870404896089
aF660.05874773135452
aF668.29859197242035
aF672.61775636078255
aF677.06373313521044
aF677.27309694035296
aF674.94377990062458
asI56008700
(lp84
F503.46521848347027
aF512.71286674550663
aF510.18917124887787
aF510.85025518676917
aF507.56043601449653
aF506.77915550638772
aF505.03660170354038
aF498.78636102974798
aF498.08032614044691
aF496.27000360750679
aF494.4069545373676
aF494.36923032352473
aF493.02453033807103
aF490.92895797541246
aF487.01506090353746
aF489.00547903907147
aF487.77346686421515
aF485.88807393864744
aF484.15274006227986
aF484.23523545113704
aF484.67838555425817
aF477.49667185465046
aF480.27574324767625
aF479.53203128828153
aF482.58149677519179
aF483.23506149944103
aF485.99910633483881
aF494.97625221692437
aF496.61378651979862
aF503.12580521286799
aF510.34510755579254
aF503.26976399828851
asI54216362
(lp85
F633.27552299210163
aF642.00516635147358
aF629.54502621886797
aF632.84307117807782
aF633.62417947854135
aF636.34375327765281
aF635.48002820082354
aF639.15371039803131
aF634.40697459823252
aF615.9934956498065
asI56008702
(lp86
F536.92624820543062
aF537.97803972210613
aF549.89204294608464
aF547.01601562880353
aF534.74888270129793
aF532.91609185124685
aF528.10256316072582
aF524.51933210447055
aF524.39920529462506
aF520.74836397462366
aF520.94362116761249
aF517.01481430471961
aF520.59678594054333
aF519.4925187467154
aF519.19192540997653
aF519.77768471784304
aF520.92692951644335
aF521.54290743812624
aF522.39154610311846
aF519.63463147228811
aF520.40811985090909
aF521.23412227550216
aF524.19382722446153
aF524.63684833615036
aF524.15607821909612
aF523.57752519941926
aF524.02054622930291
aF525.77822133175118
aF526.74726770821758
aF530.65966547641221
aF534.31046707204132
aF534.56577149948589
aF538.21658096803503
aF537.961283305655
aF541.34166564631414
asI50191487
(lp87
F9.8186015116684526
aF90.305818746480824
aF90.005672145466377
aF77.775536017733543
aF34.391612851806109
aF20.959501293911913
aF20.869377404282076
aF24.956109577048181
aF24.790889577005597
aF24.618159673478861
aF0
aF0.35308073135815943
aF9.4355193152864647
assS'building_x'
p88
(dp89
I30896504
(lp90
F119.04425931538167
aF120.83431512607947
aF123.95857403930162
aF144.28293488875738
aF146.16193764772805
aF145.22799544653967
aF159.29272039749691
aF158.34765981783744
aF137.88987820641924
aF135.63285125349708
asI261316395
(lp91
F173.43527417817182
aF170.2220681420817
aF170.82245958021792
aF168.00951451394246
aF159.98205870206399
aF152.94413700022116
aF154.15603820514434
aF120.60082958699476
aF125.32613221614686
aF122.92456664023737
aF126.83822906688103
aF165.60794877566263
aF167.80938403566535
asI30859396
(lp92
F43.984221724228952
aF50.488461040565511
aF50.310567315283826
aF50.232738810566708
aF37.001893096702787
aF56.781451620418622
aF79.751979605458814
aF77.550544651814064
aF77.617254802754701
aF77.706201668440258
aF80.652566635385639
aF63.69707031724618
aF64.731077620731085
aF63.708188674535521
aF60.039130515585377
aF39.158854481433934
aF49.810241212222991
asI26447622
(lp93
F483.50417399503954
aF444.60101449335525
aF448.18112795765973
aF441.78806821438894
aF439.26419942860525
aF436.0732287762973
aF418.78417203603829
aF406.72074687180549
aF429.49115695820075
aF425.12163972416181
aF430.38062611915893
aF434.58336792027342
aF443.87832078439584
aF456.35312615748074
aF450.72723350718343
aF453.2955757984559
aF452.93978812046055
aF486.47277757622356
aF488.55191192704547
aF492.65458882238192
aF491.19808292987909
aF499.24777966071173
asI222825537
(lp94
F19.879622586113566
aF24.727226398304747
aF27.406750539638505
aF50.588526261839192
aF51.288982806306755
aF74.526351191396444
aF73.970433278591585
aF90.90369315286614
aF88.257523818902968
aF91.559676308207585
aF89.058045632742719
aF86.233982570939062
aF83.710115199351733
aF77.884095402652036
aF68.311188941881596
aF77.984160627490652
aF70.779464461789033
aF49.054192877686177
aF47.575451287816342
aF21.514021115559189
aF22.45908149092222
aF0
aF9.3060648572450546
aF19.857385871694241
aF29.430291600133366
aF18.934562214506471
asI26447626
(lp95
F554.18362706655569
aF509.61009659754609
aF524.80890296936093
aF535.08227339179041
aF537.16140790301188
aF541.30855857797553
aF538.86251796198178
aF546.34517860335245
aF551.17054970287188
aF560.76570017761219
aF557.69703094878344
aF561.72187972324286
aF559.76504716575573
aF568.82651615799637
asI222831554
(lp96
F315.43898416854847
aF314.86082931840707
aF326.49063659083134
aF324.64498838765957
aF312.99294442330086
aF304.83206643117023
aF295.83731138139723
aF297.59401260489278
aF295.44816870580627
aF245.12646360143432
aF229.82759867675347
aF276.86938582111895
aF273.51164055899181
aF274.7235419930696
asI26447631
(lp97
F524.25298466060235
aF491.29814821950072
aF489.3413158811033
aF487.39560191233522
aF478.86781562158228
aF480.66899081270742
aF478.78998706307482
aF487.76250797508993
aF488.89658125840043
aF491.35374004828827
aF488.59638538817143
aF491.64281755277824
aF494.38905386004552
aF512.64541049741729
aF510.4884475046926
aF520.45050344575054
aF526.16534364299162
aF529.46749841037138
aF535.04891829316773
aF537.51719562715675
aF539.02929345827192
aF539.81869747405938
aF540.97500758429408
aF540.5413912930926
aF535.627073344059
aF546.04498270723229
aF536.1496365621739
asI30924632
(lp98
F31.998632186596861
aF32.965929292700928
aF31.965277113871654
aF32.109815762233971
aF36.101306129896997
aF36.612750580823359
aF54.891330769220254
aF54.757910473534139
aF92.771577396068423
aF92.827169189377315
aF110.51647797150872
aF109.80490300271794
aF44.851453629595717
aF44.595731401062586
aF108.85984249726394
aF108.78201398519589
aF111.38370996702818
aF111.20581622578456
aF112.58449273261408
aF112.50666422145353
aF110.52759633190064
aF110.38305766448657
aF107.31439061299417
aF107.20320702482118
asI30924926
(lp99
F79.807571397325574
aF95.773534224001864
aF111.36147324976952
aF119.43340188245793
aF114.36343016724723
aF114.96382155265704
aF121.32352292701343
aF122.61325258436983
aF113.92981416769528
aF116.5648652491919
aF98.897793014589453
aF97.663655198644392
aF91.17053375887474
asI26447635
(lp100
F640.61781554775359
aF594.22086675658409
aF582.36868723517114
aF607.92981388876126
aF589.0619443108294
aF590.64075246874825
aF588.99523410634106
aF573.9854384382013
aF579.08876892573596
aF569.84940591617431
aF562.2666796964088
aF555.84026370454501
aF554.52829643482619
aF552.89389653216801
aF555.88473717116972
aF550.06983140693308
aF549.95864774160566
aF551.80429660139737
aF551.84877006827867
aF548.23530091821578
aF556.91874527641369
aF558.7199206898664
aF592.30850756901737
aF602.08155254506516
aF598.5570300517636
aF602.13714438317947
aF603.67147910285223
aF624.89644311157997
aF628.18748002540076
asI56008695
(lp101
F766.53334787010726
aF761.54119957883017
aF751.83486236704732
aF749.46664953045195
aF717.77929552577541
aF725.13965620929184
asI30925209
(lp102
F838.06894707072399
aF850.02119671286778
aF851.77789946956591
aF855.81386847983401
aF859.98325798239466
aF862.80732448603317
aF864.45284355691535
aF865.06435402320278
aF865.33119495470453
aF864.55290890566016
aF863.42995332266844
aF865.97606053897437
aF855.49143569441014
aF852.62289573498936
aF846.21871354620077
aF842.93879387486356
aF841.21544625590047
aF839.14742912193049
aF837.92440823833249
aF837.67980406220556
aF838.20236753096765
aF838.4580900775569
aF836.91263641898217
aF840.58169906984642
asI30896795
(lp103
F377.74629068696805
aF373.04322290473385
aF371.82020291864501
aF367.06154336368661
aF367.75088189604946
aF364.37089942579081
aF372.25381909601487
aF373.85486344227496
aF393.46765700292622
aF391.43299641801815
aF395.96928887787857
aF402.31787470296138
aF407.08765288758144
aF408.26619948454021
aF413.51406737338192
aF412.23545548984953
aF415.55984639295491
aF414.54807524755188
aF406.85416724120245
asI261468572
(lp104
F130.10702667765574
aF126.99388609497898
aF126.59362516303443
aF129.80683097969816
asI30896555
(lp105
F157.82509690870515
aF158.84798600576235
aF180.12852694151169
aF183.34173302839292
aF192.79233925871733
aF191.45813601774285
aF169.99970094173366
aF167.66484535574446
asI54216353
(lp106
F188.72301938199624
aF188.16710136706797
aF169.28812590567438
aF169.84404390161166
asI178744355
(lp107
F664.03309940348061
aF695.15341389722448
aF694.18611578159619
aF663.31040544399207
aF663.36599728712827
aF661.99843795105619
aF661.79830731662844
aF654.82709026321584
aF655.98340058205213
aF663.34376054952008
aF663.25481360085735
aF663.98862592966248
asI54216358
(lp108
F141.38104306399472
aF141.79242236353105
aF140.50269266729882
aF140.74729657612477
aF142.32610361891318
aF142.61518096463976
aF164.68512490648831
aF164.32933739066317
aF166.84208672323095
aF166.26393200885889
asI30924849
(lp109
F115.27513560549953
aF104.22348685884154
aF115.67539652904189
aF116.87617930229756
aF124.83692441311821
aF123.69173341983769
aF130.85195674833548
aF131.98602939603506
aF142.09261806939983
aF141.24762275020169
aF144.68319583116033
aF145.31694232282345
aF151.66552564181688
aF161.73875954895794
aF153.51117334351133
aF155.15669057678681
aF151.88789283505875
aF157.36924415876985
aF134.3987133655373
aF130.10702667765574
aF126.9494126572672
aF125.01481816094498
aF120.64530302208277
aF119.72247921832481
asI54216360
(lp110
F335.35197172123503
aF332.80586663459241
aF332.37225048508952
aF321.57632029876225
aF321.88763445254096
aF307.90073443753937
aF307.45599994284476
aF295.57047068953449
aF296.01520517505077
aF284.32980665056539
aF283.87395381029046
aF273.92301994532539
aF274.28992588137265
aF270.50968288744377
aF272.55546144795801
aF276.33570445377723
aF278.45931156549966
aF263.40504979152138
aF266.39588906779392
aF289.85563256634811
aF289.94457946324303
aF293.32456153847289
aF297.08256794262837
aF302.46385526186901
aF302.66398578273447
aF308.55671781751209
aF313.14860149788097
aF317.41805269669993
aF321.34283468461092
aF325.26761669593378
aF328.51417860492609
aF331.83856907086215
aF334.35131906610479
aF348.23815439693868
aF346.88171410363367
aF352.72997309589681
aF351.6514918701468
aF340.0328024993874
asI54216361
(lp111
F105.13519228160894
aF105.13519228160894
aF103.08941426241049
aF103.10053262028423
aF101.65514598093964
aF101.58843582844641
aF84.32162491514022
aF84.310506555962547
aF86.889965722544176
aF86.889965722544176
aF96.373925592916379
aF96.373925592916379
aF109.53806238913678
aF109.50470731116029
aF113.09593724586774
aF113.10705560380019
aF139.59098719462526
aF139.5353953978227
aF112.26206032405378
aF112.29541540066474
aF109.63812761776705
aF109.63812761776705
aF82.264728603776433
aF82.320320395363296
aF83.098605485527926
aF83.109723843637966
aF80.752631860016734
aF80.886052160711458
aF53.924033629331802
aF53.968507061088772
aF47.931238738591233
aF47.909002022783291
aF47.019533396688445
aF47.008415040203836
aF44.228825596564974
aF44.239943952679802
aF43.083634748458735
aF43.105871463856715
aF41.593774813852285
aF41.560419740251689
aF27.384513824424147
aF27.406750539638505
aF13.642224157664801
aF13.953538159602836
aF40.693187839921791
aF40.75989798673961
aF103.73427907151496
aF103.60085876638442
aF126.83822906688103
aF126.83822906688103
aF146.67338218596245
aF146.06187241080386
asI222831274
(lp112
F654.24893510477636
aF651.16914705481281
aF666.57920581865596
aF646.86633850541932
aF662.65442169793778
aF709.68512254631025
aF693.76361775508076
aF669.51445515045498
asI54216363
(lp113
F174.85842426075291
aF175.22533014216114
aF195.66087623601621
aF195.56081099152101
aF197.72889127478629
aF197.46205062369677
asI54216365
(lp114
F325.4121554112869
aF325.12307798200595
aF323.68880919968598
aF323.21071960429106
aF321.48737339789409
aF321.09823070779436
aF322.99947071570091
aF322.71039328714522
aF324.15578043036908
aF323.86670300092811
aF337.73130137615061
aF337.83136664341077
aF340.16622285483891
aF339.38793744858526
aF327.79148502919782
aF326.45728150371326
aF333.1616542437726
aF333.28395623455441
aF349.49452942475148
aF367.45068608312715
aF369.47422822700662
aF366.77246591490058
aF367.17272699689516
aF362.21393693675947
aF363.43695690384601
asI54216366
(lp115
F234.03033914952985
aF233.55224962395545
aF238.03294915019816
aF236.37631334070065
aF231.57318135659759
aF230.67259411443266
aF213.76156723233453
aF214.71774625518057
aF210.08138984345129
aF211.79361738775395
aF216.74128791143173
aF217.11931217791073
asI222830383
(lp116
F367.71752680536889
aF367.96213080099676
aF374.66650398016816
aF374.75545088744934
aF404.34141695985954
aF403.81885384764644
aF412.80249206479562
aF412.52453295944991
aF311.16953298236274
aF310.98052082216441
aF320.49783912734586
aF320.68685129062385
aF317.99620754904328
aF317.51811795969468
aF318.70778275230799
aF321.09823070779436
aF323.15512779287872
aF324.35591095849679
aF324.78952710190413
aF327.80260339122481
aF327.74701157755533
aF348.09361567699767
aF348.09361567699767
aF355.76528624395553
aF356.38791458413147
asI222830384
(lp117
F282.27290969179484
aF282.261791329684
aF291.65680722301659
aF291.667925584476
asI222822705
(lp118
F259.78046392427387
aF211.93815607600317
aF209.0140272220784
aF196.40580638344125
aF205.12260101023671
aF205.54509871147243
aF185.94342931712285
aF179.02780928898696
aF207.17949771892214
aF206.77923673746872
aF211.41559312481732
aF214.55097084294269
aF215.26254593141877
aF226.77004940807254
aF229.02707668487045
aF237.26578223081785
aF235.79815856401115
aF271.3546783805055
aF272.18855551048165
aF277.6143160635886
aF277.88115674759877
aF281.86153029974525
aF286.34223016870294
aF286.07538947995636
aF291.72351739566301
aF290.04464472194564
aF314.01583377077787
aF312.28136922609184
aF310.40236597516395
aF313.08189132341283
aF309.8464478543039
aF263.21603764496552
asI222822706
(lp119
F357.97784052633705
aF354.4422010232712
aF357.38856727400741
aF360.92420679324067
asI135677815
(lp120
F688.58245776230319
aF699.43398603606022
aF703.84797863426354
aF718.31297726434741
aF653.63742484045702
aF637.97164392242587
aF653.23716357697003
aF643.58641986358464
asI54024501
(lp121
F47.164072048316562
aF96.974316960960479
aF97.930495807725492
aF104.97953525778195
aF106.81406446520651
aF107.82583512129003
aF108.47069993554146
aF107.97037378709496
aF100.24311441944968
aF106.72511759426686
aF77.961923910623725
aF79.029286313106752
aF68.222242077343353
aF69.056118940197621
aF61.66241078945378
aF60.939717514948178
aF40.682069482413645
aF39.837074298197741
aF37.824651562554358
aF35.58986168122933
aF37.16866846254409
aF36.601632223692604
aF52.167333080006649
asI54216374
(lp122
F245.86027544504657
aF243.79226024953419
aF225.79163364636653
aF224.76874444161842
aF206.44568591971469
aF209.51435345206426
aF225.50255626209841
aF225.86946217279908
aF228.01530583697459
aF227.68175500733233
asI54216375
(lp123
F143.159980579777
aF142.97096846754098
aF156.34635506534099
aF156.17957966921847
aF140.91407196699765
aF140.93630868566402
aF140.01348485363047
aF140.13578680677054
aF140.89183524833163
aF140.92519032615405
aF114.26336493659977
aF114.4301403212508
asI118781383
(lp124
F382.84961959712609
aF425.68867631115114
aF427.73445537128168
aF435.39500853580017
aF427.93458593169748
aF428.99083055572356
aF423.77631763235223
aF422.2308649823928
aF416.9829970199234
aF404.44148223598353
aF402.48465016369744
aF399.01572059603797
aF401.50623413115068
aF367.70640844275152
asI30859594
(lp125
F199.08533124979704
aF226.36978841362185
aF208.16903181425874
aF180.89569379133818
asI160546421
(lp126
F144.95003645959386
aF136.84475242435036
aF111.58384042767062
aF105.52433483981829
aF94.53939641433287
aF89.847449089477848
aF103.55638533134301
aF97.75260206845175
aF64.397526877153766
aF66.776855515836075
aF40.259571889728463
aF37.769059774391145
aF3.1020216038937267
aF8.472188072568219
aF2.8574177499260927
aF9.7396807865950539
aF17.689306196730072
aF22.258951058765145
aF66.243174325211882
aF66.899157456119113
aF72.25820610649302
aF79.551849155246884
asI30922162
(lp127
F541.17513818162706
aF540.50803619260432
aF539.07376692378682
aF538.99593835922474
aF518.09340983814411
aF517.64867519725556
aF520.16142592688527
aF520.10583409723688
aF523.30792353775576
aF523.25233170730621
aF536.42759572096338
aF536.51654265222328
aF538.58455880106033
aF538.47337513854177
aF540.2411953979107
aF540.17448520048072
aF552.10449250056979
aF552.28238636671654
aF557.04104731120742
aF556.92986364334138
aF568.03711210512574
aF568.18165087534953
aF570.80558547567819
aF570.66104670524987
aF577.06522611334424
aF576.68720163267767
aF580.65645869288858
aF581.04560154249702
aF583.29151171153956
aF583.41381375090054
aF586.66037697975059
aF586.54919330657367
aF588.48378921182473
aF588.39484227347793
aF600.04689129265512
aF600.26925864169607
aF604.06062196790015
aF603.94943829226486
aF615.85721005542803
aF615.99063046846322
aF619.10377345038421
aF619.59298163536494
aF601.47004233263533
aF602.15938111828427
asI222825538
(lp128
F198.85184567948193
aF159.69298134837982
aF152.24368034217889
aF162.18349394172611
aF148.58574003127526
aF161.95000838657916
aF160.21554425732143
aF168.91010166715881
aF169.47713802443019
aF208.05784820778089
aF207.61311378299561
aF223.45677785453159
aF224.24618147839141
aF226.00288250494486
aF229.04931340775622
aF231.53982627469901
aF233.70790667923251
aF232.42929515829019
aF238.64445901348611
aF243.21410546491174
aF245.20429212937282
aF247.63921325339726
aF246.60520565155198
aF247.69480505939404
aF243.45870941250234
aF243.64772155318516
aF237.43255764824764
aF235.5980280633415
aF230.87272461245794
aF229.79424359453222
aF198.3737561794438
asI222825547
(lp129
F120.23392373598055
aF118.54393315777911
aF121.76825729154424
aF123.45824787898657
asI58064836
(lp130
F112.65120288620146
aF140.51381102715982
aF140.33591727610866
aF136.2777160959549
aF136.22212429889615
aF112.4065989898436
asI30922181
(lp131
F676.43008052112827
aF675.3515987452854
aF676.54126420889975
aF676.60797442220201
aF675.56284775377162
aF676.58573768514134
aF676.64132952973796
aF673.65048832088894
aF671.27115740734428
aF665.64526285291629
aF662.99909112316652
aF659.55239687094593
aF659.4634499221122
aF659.39673971119691
aF660.80877251484117
aF659.4634499221122
aF659.41897644840412
aF660.67535209220853
aF659.4634499221122
aF659.33002949993033
aF660.38627450975321
aF659.22996418285845
aF659.15213560193524
aF660.19726224587589
aF659.12989886720584
aF659.15213560193524
aF660.24173571889594
aF659.04095191733199
aF658.84082128393163
aF660.57528677541723
aF660.48633982688762
aF658.60733554581691
aF658.51838859738234
aF659.40785808050748
aF658.429441649659
aF658.37384980702484
aF659.41897644840412
aF658.46279675509891
aF658.31825796474573
aF659.37450297398993
aF658.30713959544164
aF658.20707428019273
aF659.55239687094593
aF658.12924570037319
aF657.99582527793405
aF659.15213560193524
aF658.05141711985004
aF658.16260080616132
aF661.25350725654812
aF663.47718097199197
aF669.04748366554634
aF669.40327146381378
aF671.74924726432118
aF674.70673335551817
aF674.78456193780403
aF673.90621080252947
aF675.14034973894445
aF692.79631964230236
aF708.78453462444384
aF709.95196341246037
aF708.84012647107147
aF708.95131016574567
aF712.04221686560049
aF714.26589075786228
aF719.83619389644628
aF720.19198172218739
aF722.53795771032765
aF725.50656240859473
aF725.57327262755734
aF724.69492142283855
aF725.94017882729986
aF726.08471763285081
aF724.87281533776036
aF726.11807274234229
aF726.14030948176799
aF724.82834185964703
aF726.35155850491128
aF726.37379524575374
aF725.11741947164592
aF726.57392589956191
aF726.68510959672051
aF724.89505207752472
aF725.15077457899883
aF727.0520157973915
aF727.10760764563099
aF725.76228491227471
aF726.96306883964644
aF727.00754231887197
aF725.75116654221074
aF726.94083210091776
aF726.99642394950752
aF725.69557469471908
aF727.15208112592063
aF727.21879134388246
aF726.14030948176799
aF727.32997504107993
aF727.39668525904847
aF726.35155850491128
aF727.37444851854684
aF727.43004036750301
aF724.43919892107397
aF722.05986781720492
aF716.44509118196686
aF713.78780087112841
aF710.34110634161004
aF710.19656753906202
aF711.59748208761164
aF710.25215938643942
aF710.20768590903231
aF711.46406165423593
aF710.2632777557028
asI118781382
(lp132
F370.31922385019129
aF361.58019022853045
aF354.72016010337131
aF342.44548726001915
aF370.8417869332481
aF370.56382784580563
aF379.90325322854278
aF383.58343160064476
aF385.6848023431051
aF391.72207387662399
aF389.44280929479351
aF393.41206518377237
aF384.0615212397289
aF383.12757868816118
aF373.93269198580282
aF375.53373633632725
aF374.13282253020628
aF380.85943250141707
asI30922695
(lp133
F483.50417399503954
aF464.45841427193625
aF466.39300980510842
aF460.13337025877019
aF459.74422748219695
aF460.8671823520487
aF463.10197373024312
aF467.23800555627821
aF471.6964700013271
aF477.5336117789725
aF479.19024821539108
aF484.1268024594645
aF486.16146334094151
aF484.64936563730259
aF499.30337149009023
aF511.98942690509097
aF497.24647383459308
aF495.73437610285998
aF493.71083355661204
aF498.44725732915765
aF496.69055555033503
aF501.32691405443899
aF503.17256277331279
aF503.33933825933065
aF502.01625273148943
aF499.98159179874352
aF495.85667812584995
aF492.68794391953725
aF489.68598521260452
aF485.24975737194046
asI160545994
(lp134
F866.02053402687034
aF839.55880887403362
aF818.27824583302765
aF818.30048257462897
aF812.65234997474317
aF812.73017857382229
aF819.30113599292599
aF819.54574016235802
aF866.34296681980538
asI49888203
(lp135
F159.62627118959884
aF180.56214298735023
aF180.51766954696441
aF182.08535832685462
aF181.96305636569738
aF184.73152805292335
aF184.62034445030108
aF196.21679425597992
aF195.97219032759992
aF177.79367131931718
aF177.76031623766249
aF161.0049478024095
aF161.04942124198249
aF142.69300948128034
aF142.93761339038946
aF162.15013886246817
aF162.17237558279825
aF159.38166727444224
asI30924877
(lp136
F131.12991573144265
aF164.97420226199662
aF173.30185385716729
aF147.02916969104103
aF148.14100564771542
aF143.42682120728861
aF142.62629932415962
aF139.77999930475605
asI49888205
(lp137
F119.72247921832481
aF119.56682219153166
aF116.96512617406735
aF116.95400781611225
aF98.241809851759825
aF98.219573134301854
aF88.23528710262265
aF88.279760535183556
aF83.12084220139451
aF83.243144144144949
aF89.580608485069504
aF89.591726844278057
aF88.635548009495594
aF88.668903084276764
aF96.440635744519085
aF96.429517387037947
aF118.2548558227992
aF118.24373746342243
asI49888209
(lp138
F191.93622551249368
aF214.61768100790675
aF214.60656264654901
aF216.71905119081228
aF216.66345938679018
aF214.67327281151506
aF214.60656264654901
aF211.7713806661323
aF211.63796033782197
aF202.49866792194035
aF202.62096988690297
aF200.47512630854547
aF200.53071811244385
aF191.84727862906601
asI54216355
(lp139
F267.12970093560864
aF267.28535799931865
aF268.48614105957699
aF268.54173286725018
aF267.34094980730987
aF267.54108031701099
aF276.83603073664995
aF276.92497763010056
aF285.7529569837709
aF285.67512844849836
aF303.49786295453282
aF303.44227114264379
aF304.38733193790972
aF304.36509521448676
aF306.43311060601286
aF306.34416370727644
aF303.35332424404913
aF303.13095699899486
asI30922712
(lp140
F117.68781951128454
aF109.24898505765232
aF98.619834046817644
aF100.37653472434386
aF99.576012896533769
aF103.65645056036442
aF104.49032746990669
aF106.29150159929125
aF108.61523859998151
aF108.34839798762845
aF115.29737232174359
aF128.19466889061346
aF131.45234814922549
aF131.85260908396504
aF140.68058641977973
aF141.01413720329609
aF151.04289750300001
aF151.56546040530853
aF159.49285087169039
aF159.03699812135295
aF183.15272090577497
aF183.57521859184018
aF196.90613260301271
aF196.50587162727419
aF206.16772690431662
aF205.85641280751534
aF207.20173444013608
aF205.6896373992428
aF206.90153870412288
aF203.88846298850612
aF193.08141662701243
aF179.09451945022056
aF185.88783751542169
aF140.28032547999123
aF141.7034754895341
aF135.05469656740343
aF121.45694323657381
asI160546650
(lp141
F478.44531773712561
aF438.63045264228646
aF437.67427328328591
aF431.39239729152359
aF437.11835505179727
aF435.96204513050577
aF440.64287664936626
aF441.57681928483493
aF449.57092356260944
aF450.80506206204439
aF451.61670269806217
aF455.98622011399164
aF454.88550198289693
aF456.14187722309538
aF453.75142876023557
aF493.21050710331343
asI54675151
(lp142
F459.75534584712966
aF459.21054596196944
aF469.40608676701652
aF469.95088666152037
asI56008698
(lp143
F665.70085469612286
aF666.59032418765628
aF665.40065874282709
aF667.39084673181662
aF668.73616934198617
aF671.05990840147035
aF684.1239917945602
aF678.93171351139199
asI30861157
(lp144
F626.79768402944671
aF607.09593631744247
aF619.37061427799313
aF615.62372433228586
aF619.37061427799313
aF620.60475310835011
aF620.64922657900343
aF619.80423062369084
aF618.35884280709672
aF615.02333247417505
aF611.44321806870585
aF606.90692406784967
aF603.32680970953777
aF595.76631982448714
aF593.90955246965746
aF590.65187083658509
aF588.63944635288146
aF588.5838545169396
aF589.050825943002
aF577.5766709990537
aF575.99786287417999
aF573.62965069327856
aF571.8173568721727
aF572.05084257812848
aF574.14109557804034
aF565.40205914880517
aF569.20454063352531
aF565.6911366884998
aF564.06785512565807
aF563.90107962146237
aF565.1352183445232
aF566.79185501137999
aF569.24901410188431
aF572.11755278023952
aF575.20845881330786
aF578.43278526645406
aF581.72382193897693
aF594.04297287828342
aF613.52235282957372
asI54029691
(lp145
F821.92507163212258
aF822.6366473992058
aF821.76941443248018
aF819.8236994458432
aF817.94469469171759
aF817.52219658374395
aF813.61964827039435
aF800.74457452033289
aF800.75569289155749
aF820.13501384304323
aF820.13501384304323
asI222831277
(lp146
F724.69492142283855
aF736.08013206764269
aF732.61120067771697
aF736.09125043670861
aF724.86169696699471
aF721.37052889984227
aF717.91271596066906
aF706.4385586873982
aF710.25215938643942
aF706.84993835358466
aF717.79041389579163
aF721.30381868244581
asI222719074
(lp147
F719.33586726538795
aF717.62363835262909
aF707.48368540690694
aF707.31690986785907
aF705.50461566330171
aF705.4712605545368
aF695.46472823443298
aF690.27244985854236
aF691.49547045761039
aF674.50660271723837
aF674.55107619237049
aF673.18351683245965
aF673.25022704493369
aF665.56743427278332
aF665.66749959055232
aF645.50989757341176
aF645.59884451980611
aF640.41768492023721
aF640.82906454413717
aF713.37642119950431
aF711.68642904320075
aF711.64195556469872
aF713.82115597862969
aF713.86562945647745
aF718.82442226444323
aF718.63540998291217
asI222719075
(lp148
F669.30320614442826
aF669.40327146381378
aF678.48697875588198
aF678.3980318064896
asI222719076
(lp149
F669.50333678073002
aF669.4811000441083
aF678.4313869126438
aF678.45362365043377
asI222719077
(lp150
F669.59228373110773
aF678.60928081567806
aF678.59816244625176
aF669.57004699342463
asI222719078
(lp151
F669.68123068148986
aF669.77017762940147
aF678.85388492999186
aF678.77605634718122
asI222719079
(lp152
F724.62821120496812
aF724.47255402982864
aF727.63017102284005
aF727.57457917493832
aF731.22140445252694
aF731.36594326025988
aF727.65240776193036
aF727.7079996112484
asI222822504
(lp153
F701.34634554586933
aF732.96698851122881
aF735.85776467113692
aF743.62950525298174
aF746.90942441070399
aF755.97089607505802
aF756.12655325851779
aF771.79233709141931
aF771.31424716039805
aF756.66023502906523
aF748.35481252207467
aF752.92446264166688
aF749.0997433175354
aF750.37835587954771
aF745.91988947838752
aF744.48561974405595
aF731.01015542635025
aF732.55560882895793
aF728.30839157529419
aF726.8296484030368
aF723.50525586911704
aF724.50590913929102
aF719.16909172137844
aF720.28092867925182
aF711.14162893940045
aF686.81463708764375
aF686.79240035081364
aF698.38885932924552
asI222822505
(lp154
F761.56343631833045
aF812.95254599765974
aF813.03037459604479
aF794.85183791578299
aF794.72953583659717
aF791.26060412637469
aF791.11606530474194
aF788.41430119745246
aF788.11410518844787
aF807.21546647594391
aF807.25993996170689
aF810.58433293167661
aF810.61768804623671
aF808.77203843409734
aF808.83874866032386
aF815.62095509535607
aF815.55424486640811
aF813.81977895349917
aF813.786423839588
aF830.91983413638138
aF831.14220156631325
aF828.54050263337933
aF828.66280471976813
aF836.60132201292311
aF836.55684852680224
aF884.84393834788409
aF884.76610974043751
aF882.38677803594749
aF882.33118617451942
aF885.25531812970132
aF885.18860789503503
aF833.15462681682038
aF833.02120635835797
aF845.31812543155968
aF845.02904776564446
aF832.89890427097123
aF832.85443078564708
aF816.01009808894003
aF816.01009808894003
aF819.04541345325117
aF819.12324205295545
aF817.95581306375357
aF818.01140492039883
aF809.79492857950288
aF809.66150812592173
aF808.49407915582185
aF808.41625055798295
aF761.21876683966866
aF761.29659543020466
aF764.23184519994959
aF764.2874370517867
aF761.4744893557355
asI30922346
(lp155
F885.85571024392823
aF891.57055373084381
aF891.44825163212079
aF882.24223919440033
aF882.50908013194294
aF878.05061280157543
aF878.07284954673059
aF869.967556150532
aF869.5339396345255
aF872.71379409340102
aF874.11470900138909
aF877.76153512165263
aF878.58429467547614
aF883.83216645416735
aF883.95446855132036
aF892.07088049724234
aF892.27101120376938
aF886.07807769432031
aF886.47833910502357
aF875.35996669741462
aF875.2043094851
aF873.1251738671873
aF873.05846363437752
aF866.05388914420712
aF864.97540704675112
aF862.44041820697169
aF861.60654030118667
aF860.01661309714666
aF858.77135543029851
aF855.75827661992059
aF854.77985988911416
aF844.60654963728734
aF844.48424754700602
aF833.37699424949801
aF833.02120635835797
aF826.1834078822327
aF825.54966070915395
aF836.50125666924077
aF836.44566481097399
aF847.88646931762048
aF847.76416722818112
aF850.95513994971134
aF852.18927923016179
aF855.52479081014098
aF856.33643196296146
aF858.09313473738462
aF858.3599756661024
aF856.75893009791355
aF855.99176243185116
aF852.82302642907018
aF851.05520529701153
aF847.39726095779008
aF847.56403653500649
aF835.64514205466548
aF835.1559337026996
aF824.7936114526301
aF824.8158481953709
aF834.18863537412187
aF834.77790906870553
aF844.45089243218331
aF843.58365943569208
aF853.74585129791785
aF854.97999058307744
aF858.79359217451236
aF859.4495761241709
aF859.30503728761755
aF860.41687449118888
aF861.65101378932991
aF864.35277820817578
aF865.47573379279424
aF865.49797053744328
aF874.07023551082159
aF874.15918248842229
aF885.42209371673107
asI222822503
(lp156
F506.30794193295714
aF447.84757701283797
aF443.28904745231227
aF443.81161059607541
aF426.88945967053115
aF425.25506009770123
aF420.06278393289148
aF420.56311032944103
aF393.13410608661314
aF408.3217913041359
aF410.97908033612282
aF411.07914561507692
aF427.34531261348616
aF452.49505352482925
aF477.12223226126878
aF477.93387293066525
aF479.99077052346331
aF480.0574807162601
aF493.13267854420639
aF515.06921427944235
asI30896763
(lp157
F414.54807524755188
aF423.43164833495337
aF424.2321705720725
aF430.86983415795498
aF425.88880687170132
aF449.6153970210375
aF458.52120733010452
aF463.33545939815338
aF465.0810427193901
aF465.55913241964254
aF474.18698382009433
aF473.46429007668689
aF475.45447746272373
aF450.86065388573513
aF437.05164486371854
aF440.04248495702461
aF441.16543978991359
aF446.09087537399353
aF417.03858884119262
aF415.94898914299171
aF412.83584715698731
aF414.17005086317511
aF406.64291832337807
aF414.99280981646496
aF406.85416724120245
asI26447597
(lp158
F354.16424194427287
aF365.87187848134437
aF376.53438905658663
aF389.12037674441746
aF386.81887544347768
aF387.73058127176921
aF392.66713480337972
aF407.67692618526092
aF407.59909763679354
aF432.72660103571604
aF432.69324594210838
aF434.50553936785667
aF428.65727962140261
aF424.06539510585986
aF423.85414618149349
aF409.51145626685991
aF404.96404534731022
aF400.50558136995625
aF388.95360128664123
aF380.2701592280975
aF376.60109923826275
aF369.60764858879719
aF357.35521218563247
aF358.48928523596294
aF366.56121701185521
aF370.38593403093876
aF368.9850202357411
aF366.56121701185521
asI30896622
(lp159
F472.85277998826098
aF473.79784103493029
aF473.80895939994684
aF482.18108850851849
aF482.88154553011577
aF471.72982509704639
aF471.55193125345272
aF467.67162179822412
aF471.41851087059183
aF463.52447160308975
aF454.14057153202265
aF455.17457947218327
aF453.48458800272795
aF459.34396634254227
aF462.16803106313682
aF464.4361775430753
aF463.6912470802539
aF462.35704326972251
aF459.28837451683097
aF458.12094619035889
aF457.89857889085158
aF449.05947877927343
aF448.87046657721771
aF443.58924330074893
aF444.38976556312934
aF434.53889446149668
aF430.96989943938877
aF429.93589153880356
aF430.00260172592084
aF422.39764044773466
aF418.90647404302149
aF428.86852854701954
aF429.15760602414383
aF430.24720574489976
aF429.74687934257361
aF416.42707880626187
aF417.51667850580213
aF414.89274453906887
aF414.17005086317511
aF399.53828370337305
aF399.53828370337305
aF397.34796600516916
aF398.39309221551798
aF388.24202600649431
aF384.8842801532532
aF386.09618179964878
aF384.63967615258537
aF388.33097291512803
aF389.94313566582343
aF392.31134716026821
aF390.37675185481748
aF394.51278320721747
aF397.10336199792175
aF398.77111658998643
aF398.75999822506338
aF413.40288373246904
aF414.41465487760553
aF418.40614764974384
aF419.57357590258323
aF430.59187504567791
aF431.3590421979398
aF434.43882918022501
aF438.08565277496291
aF441.66576620201801
aF438.70828119487527
aF438.99735867635189
aF440.48721954367716
aF442.95549650977944
aF448.65921764509409
aF448.40349525353361
aF455.38582840645904
aF454.82991015873267
aF464.64742647910759
aF467.41589939981367
aF465.97051192878337
aF466.29294451859244
aF468.60556447233057
asI56008701
(lp160
F782.81064234792848
aF745.00818313432887
aF735.41302987537779
aF750.94539275695479
aF751.99051954909623
aF758.99509278109645
aF751.59025822466208
aF759.12851322463393
aF756.01536955675226
aF766.92249083243053
aF775.99508115173137
aF778.96368610064962
aF782.92182605485027
aF782.87735257109068
aF783.34432414036451
aF785.36786761094663
aF782.53268308065424
aF784.4672795827455
aF788.19193378365833
aF792.67263722414248
aF798.22070430745885
aF800.7890480038177
aF806.57060095194629
aF815.3318774415485
aF809.85052043554754
aF806.01468239645817
aF801.77858302401035
aF795.1520339318987
aF790.9826448549934
aF789.79297917849601
aF785.11214508413116
asI26447602
(lp161
F415.39307092963782
aF414.50360179031281
aF404.99740043865501
aF404.31918023136149
aF385.92940634461678
aF386.1628919823728
aF364.08182197742036
aF364.14853215865259
aF352.22964675390392
aF352.58543437348811
aF349.68354159766949
aF350.57301064607816
aF352.98569544679424
aF353.34148307005717
aF365.87187848134437
aF365.96082538750073
aF394.12364047118916
aF394.04581192293267
aF409.18902370701261
aF408.8443544190223
asI30922739
(lp162
F109.24898505765232
aF105.8245305279172
aF101.83303972057962
aF91.77092512208948
aF89.591726844278057
aF86.145035703793113
aF88.602192932947446
aF87.03450438215711
aF93.449797270164837
aF93.060654717615975
aF105.70222858229612
aF111.29476309587398
aF106.11360785781866
aF113.25159427106857
aF114.49685047490323
aF117.343150381345
aF119.15544290531018
aF121.2790494904954
aF116.43144494139023
aF117.66558279289131
asI56008693
(lp163
F650.16849390006894
aF656.47260879446594
aF658.31825796474573
aF660.13055203387353
aF664.57789946508797
aF662.94349928004124
aF670.99319818872198
aF664.51118925292712
asI222823466
(lp164
F44.695796621318905
aF108.6708303951692
aF108.60412024172192
aF111.07239591800683
aF110.90562053400491
aF112.38436227186592
aF112.32877047798334
aF110.34970258932333
aF110.19404556436095
aF107.02531328361658
aF106.92524805300319
aF44.150997091743434
asI222823467
(lp165
F166.74202148415156
aF168.34306531182509
aF174.74724066118654
aF175.15861998212475
aF181.54055868034644
aF180.88457543123963
aF193.63733464515568
aF192.2920130430646
asI26447608
(lp166
F235.44237100790835
aF235.88710545304744
aF277.4141855506943
aF277.5364875307742
aF303.56457312759966
aF303.52009967829895
aF314.98313130481398
aF314.86082931840707
aF315.98378393264318
aF316.00602065620376
aF324.07795189103001
aF323.76663773724124
aF317.88502392440819
aF317.89614228602295
aF316.43963679449973
aF316.41740006951983
aF277.44754063658769
aF277.50313244593985
aF269.08653259052403
aF268.93087552666492
aF256.95640010242403
aF256.9786368263467
aF254.46588713716943
aF254.45476877522293
asI30924855
(lp167
F171.22272053849218
aF183.7197572740391
aF171.84534869703685
aF159.34831219488018
asI26447610
(lp168
F272.38868602211272
aF264.30563708292948
aF265.50642013633632
aF264.35011052776713
aF259.00217861779544
aF243.79226024953419
aF228.93812979721869
aF251.43057447280015
aF252.1310312397882
aF254.98845012398326
aF257.9792893593015
aF259.48026816291298
aF260.6254594012031
aF272.49986963875205
aF271.29908657098161
asI56008699
(lp169
F814.35346077191969
aF825.73867302430585
aF837.11276710851848
aF801.71187279839387
aF788.84791765962541
aF784.42280609824195
aF780.63144169673706
aF778.30770223492937
aF779.74197204513712
aF784.06701823639185
aF785.69030036212268
aF784.8453041865763
aF791.59415525152201
aF799.81063135643819
aF806.559482580333
asI56008700
(lp170
F643.89773417442257
aF634.08021508200443
aF631.71200268365317
aF631.01154549841431
aF627.90952082563172
aF628.7322800552314
aF627.0867615960442
aF633.72442730326475
aF633.05732521800292
aF633.32416605151309
aF635.30323557139161
aF637.26006836104307
aF638.69433785256172
aF636.71526832163011
aF640.86241964819885
aF642.74142387728909
aF644.04227296258728
aF643.80878722811008
aF645.65443636134898
aF647.24436302905156
aF647.6557426555313
aF655.28294336923341
aF657.90687833023594
aF658.69628249390234
aF661.56482157707933
aF660.87548272510048
aF663.47718097199197
aF653.9487391554627
aF653.85979220901993
aF659.99713161199691
aF652.33657573567859
aF645.66555472916298
asI54216362
(lp171
F208.43587246863038
aF203.83287118627632
aF180.22859218342126
aF178.49412800379878
aF179.97286990020146
aF178.53860144590459
aF176.90420251133517
aF174.95848950238329
aF165.96373629172851
aF175.68118290382793
asI56008702
(lp172
F515.28046323430033
aF513.7238919950712
aF510.1882516246169
aF499.72586938635095
aF503.87301981765739
aF502.95019545746743
aF486.12810824602428
aF487.22882643022075
aF486.53948776854548
aF487.69579778166354
aF488.25171605757919
aF489.75269540574868
aF502.70559141127001
aF503.09473421166797
aF504.46229320637701
aF506.25235010442981
aF506.89721532421561
aF506.76379493351885
aF508.90963954644553
aF509.94364757499312
aF512.4563982744138
aF515.72519787356191
aF514.96914898606758
aF516.89262630615099
aF517.08163852854477
aF518.71603833782945
aF520.63951566885953
aF521.49562985874388
aF521.17319724169613
aF534.67089383696737
aF533.64800413458613
aF534.68201220340825
aF533.58129393633214
aF532.48057567096896
aF531.44656760584644
asI50191487
(lp173
F75.304636272354287
aF74.215037159739012
aF51.767072195671489
aF51.933847564576133
aF52.523120532348457
aF52.701014258544348
aF45.863224186180375
aF45.807632398489076
aF33.532965528346985
aF20.50225059632368
aF20.835801316996211
aF46.97505996509414
aF46.852758030336268
ass.