(dp1
S'node_y'
p2
(lp3
F526.15996262973999
aF525.66954795800143
aF552.09754651389233
aF586.32202154468109
aF595.58669308269884
aF160.91154491063151
aF154.25581168520353
aF132.09501130659336
aF154.76796099435842
aF166.05126851879228
aF418.7770175717327
aF391.67328479502999
aF363.60577463769795
aF413.38855905495171
aF423.57542889678695
aF424.37903390930614
aF473.54861152319341
aF469.63665589145671
aF440.42019088505219
aF313.7908526885027
aF273.73219701205574
aF266.13043808273176
aF279.64527104555111
aF245.10513261361012
aF239.80904750349262
aF230.786919120699
aF243.6316802499737
aF286.58292959628437
aF277.01218903946881
aF266.37357219993544
aF255.95286463897037
aF241.11542878534883
aF233.35561769266795
aF212.59938950393953
aF192.5413442987585
aF202.72132494303654
aF199.58120464293663
aF211.88741925836456
aF223.50242501671619
aF241.44924411122312
aF236.09245946240469
aF256.81877215067198
aF382.8197428038784
aF339.74263419268482
aF324.01212817153032
aF335.79712345594606
aF338.32120878791534
aF349.82787688906251
aF352.99800481450097
aF367.66016900753971
aF340.90330319874903
aF346.99489865840701
aF398.3109400128709
aF396.62885550672678
aF404.57261796961046
aF372.05363731212753
aF345.66070577111475
aF339.43338975397586
aF458.58529926854595
aF492.74405043278506
aF483.63326912355251
aF479.80976103979026
aF465.81399922557284
aF448.07724338076383
aF436.40336360525646
aF444.28923659452971
aF445.35581490518911
aF462.45212379713763
aF471.86512291767031
aF584.77216462624574
aF549.29855481790253
aF525.05573864762573
aF525.54990668199866
aF531.16569941981913
aF555.81948946235684
aF554.05276790064454
aF577.44711134628096
aF457.30564262614109
aF449.60427065579154
aF458.79747473271664
aF461.23936726952149
aF459.42084486081092
aF462.11013787531829
aF480.28428903004198
aF477.7226937649105
aF417.20219998526295
aF463.38725609698668
aF451.40706527807447
aF425.96312577969456
aF405.31480392598525
aF418.59663755108494
aF423.75679965603359
aF430.37641121815568
aF419.89788514365949
aF370.9863561181071
aF380.86356286986774
aF384.37173951234672
aF407.91895432768126
aF656.85500651543907
aF672.21237095353013
aF684.38766041925214
aF276.97362740301656
aF276.6571092855159
aF280.10467143396909
aF301.64697588962503
aF307.04065434140568
aF298.70372154588881
aF294.4299570365684
aF478.91704007027886
aF480.12656531127948
aF445.50982329566807
aF438.93669906770822
aF432.67128337216224
aF447.3561377244875
aF130.5481621160437
aF543.31247406644593
aF564.98394727714481
aF578.06492441466173
aF604.02519653411389
aF612.2305518392734
aF672.30120325908626
aF674.68627886195043
aF687.35835643622829
aF686.67862599846751
aF686.14612528753378
aF648.66039395810878
aF642.21231211747988
aF416.75233219633481
aF410.17010591659312
aF400.21521640340808
aF398.59984711092824
aF418.40090588093716
aF422.27781078155505
aF440.65451097361415
aF438.02560081512064
aF438.13868307153268
aF681.54135458921837
aF679.13157238826761
aF675.94201916080272
aF671.56498884391635
aF657.88564443305449
aF629.58829582128851
aF634.1005076292538
aF633.96275472815694
aF635.99761993596826
aF642.9448017158262
aF654.84925926999267
aF620.49331214409438
aF619.35895508410033
aF643.8786139821899
aF642.88367004710858
aF631.98226237118388
aF642.29667655308685
aF641.86393303762782
aF630.52777024308511
aF637.89279915589827
aF633.76247533202445
aF610.06076889019346
aF610.26831453270051
aF596.25771614098903
aF597.7161671550067
aF605.45894666408196
aF607.162164062089
aF620.61665971315972
aF341.13135082920775
aF337.90154583245243
aF302.69492830671072
aF287.18269648293153
aF350.69873657323888
aF326.01717690554818
aF599.12116245948516
aF594.34128501624571
aF612.5071069242133
aF599.73712697721407
aF592.48608778368816
aF583.65205940516489
aF569.66598737975551
aF568.93507137365725
aF567.3332695543296
aF590.16191099775131
aF609.12272302935492
aF613.94377640486618
aF609.48383849297556
aF598.68862191725657
aF8.5035182594255065
aF9.3222616898974682
aF28.552737723165656
aF36.598623015752246
aF26.487384655120138
aF10.449200875452938
aF4.4996894254238766
aF4.8677549740949191
aF30.476418536493238
aF548.30810071754991
aF539.8013273383574
aF510.99355420195548
aF506.83855963722391
aF499.2610178288918
aF483.21261610417622
aF478.93007480287349
aF482.42972783237337
aF471.24329979571291
aF485.79896003503319
aF484.62537981651059
aF498.3480015313944
aF518.6608496770458
aF537.30576841815673
aF529.00920649182251
aF684.07775312437138
aF677.59498964449256
aF680.5017100223921
aF202.33099672414022
aF209.18097803592133
aF226.50950596344933
aF287.35590780429851
aF272.8517599823785
aF254.7180630947598
aF125.05740700901715
aF123.84024273098665
aF145.21268877384296
aF157.80407687263843
aF164.52789048641117
aF176.53345425791571
aF174.74559318319365
aF159.22461313451979
aF578.63582722288334
aF588.79241833290814
aF574.6113413092703
aF639.32855278862633
aF368.58565675198503
aF386.45666042194341
aF391.81299064608692
aF379.51683405440292
aF378.1199706797957
aF342.44770708457594
aF377.74231955127652
aF434.72765914180735
aF443.43561766346301
aF386.45014001605074
aF742.9687458313914
aF787.97571456159608
aF783.43419702604956
aF817.12015596218998
aF815.14595918233204
aF841.21435978848024
aF843.67641412346916
aF875.8900312819743
aF856.67810418130557
aF851.91164226068611
aF865.70474597951682
aF859.4670698535848
aF829.65698252768209
aF790.42693712264906
aF766.49822707654891
aF770.75936528948762
aF731.19775356521143
aF655.04590779636874
aF627.41030323767802
aF627.44801647299175
aF624.6408768468774
aF606.65024434438124
aF604.88280445152895
aF600.40563703523298
aF597.82160631398824
aF605.44310747664076
aF599.52363174520929
aF583.41754999877821
aF604.19458455601148
aF595.57698466167051
aF604.5289048267714
aF624.8928958576679
aF653.55925086459877
aF361.0527040312511
aF345.30000353083381
aF340.60427365089174
aF311.86322965241214
aF305.53722041786079
aF297.74668710804082
aF280.69206953736273
aF279.74555802875392
aF279.52667627062937
aF280.13503969000016
aF299.77139579310131
aF319.39257303062311
aF324.17050315177443
aF327.10809108097601
aF341.51113053888355
aF485.65211765124519
aF491.00871103784931
aF492.1375670399612
aF650.56129320960963
aF655.03259082695081
aF638.09390003273461
aF634.07531727556432
aF619.38263231469818
aF597.78695790511733
aF596.53971812801308
aF600.56452991963897
aF601.28964046266583
aF596.24827902407355
aF595.7149257388146
aF618.03091781371495
aF627.40543090254425
aF649.32373329212612
aF653.34361234821517
aF337.97133280504016
aF296.9701431426833
aF294.56526110146734
aF300.77753886475841
aF318.7696692647707
aF320.33206714029086
aF328.36204095930987
aF145.87184470665738
aF127.16785293495603
aF117.67298102909227
aF113.23349087597568
aF117.11662226031582
aF99.042950412440803
aF111.54232586815831
aF131.65164991284081
aF137.92392723064563
aF141.04878605403698
aF126.68587009124587
aF126.61133235445482
aF126.34138549225641
aF114.22564090081457
aF81.280608490114915
aF81.617964436872825
aF52.225009936347412
aF52.472724823786798
aF75.655324759452256
aF95.96841493084446
aF95.157670369348878
aF74.927178054416302
aF75.152297609067148
aF442.65763575667279
aF460.58864917515655
aF475.6756734177705
aF477.00557481359778
aF61.991331268029903
aF98.568623279018041
aF100.84488930423498
aF100.77009025830807
aF93.205356234464858
aF65.206995389262673
aF56.162101768473839
aF59.174241331469716
aF58.865263735953839
aF60.540474905062375
aF86.389851879704239
aF606.84160966356922
aF577.41671453598349
aF578.0066005982444
aF582.43119920666095
aF607.3336528844676
aF223.90430483313105
aF240.2056942081787
aF235.29980044104474
aF262.86179309000983
aF251.50189119703487
aF239.24096262997901
aF240.14992113767866
aF228.51264110253828
aF216.95901149835058
aF193.88198189744762
aF200.43308858669869
aF239.34032469599231
aF242.45067351499819
aF213.39375078127469
aF453.57101319888142
aF412.73208704078581
aF395.87531796628127
aF439.1772585104448
aF52.162223641228856
aF78.048034896144031
aF78.258229441475805
aF52.379975316045886
aF528.52918443176816
aF539.14912149205963
aF214.18648867470827
aF233.83018046112397
aF246.2238853703831
aF256.10163118094385
aF261.60843477744999
aF253.97692231087692
aF238.45856629484621
aF219.55196083766697
aF207.75814551524962
aF220.19702772023882
aF200.77869496720129
aF205.4361460103394
aF197.39210827502484
aF197.4440309070028
aF200.04296702037149
aF302.43549136087933
aF320.92066269948816
aF331.86593169124563
aF313.02015304238233
aF133.86258941560067
aF133.44245278912416
aF69.616971324000346
aF57.989361524273974
aF57.606470611463401
aF31.556262561767952
aF32.945499435814064
aF44.550747987367629
aF115.64044932248983
aF99.610935169205689
aF78.338163887617299
aF112.23676520409086
aF123.08328450590419
aF406.92207663453195
aF376.29552814349103
aF363.50201735898685
aF363.76393967728825
aF384.49554127318328
aF384.19605065608158
aF400.66919817628326
aF417.87926893121141
aF422.07098396457155
aF431.50599118546
aF441.51943779984651
aF403.8650893485966
aF582.58818699370534
aF573.05287861175407
aF556.58097479693322
aF543.8699010778447
aF531.07723259955276
aF508.75908379676758
aF513.37431324813383
aF524.80672702460754
aF530.36205416766518
aF542.81590024158561
aF542.88986723675998
aF569.01434837463898
aF572.29214665683071
aF593.63949249499797
aF605.75514242253359
aF601.85509598687202
aF381.06245443860615
aF398.16657244186132
aF418.03457595216662
aF424.59030809033567
aF456.68733215992
aF439.84699855457325
aF436.67094900570635
aF453.62512537356162
aF454.79025139223239
aF435.70442658202938
aF418.87900730844666
aF417.81831012824256
aF399.38491640116081
aF390.24499178866427
aF359.52359913996082
aF359.72580814923577
aF381.03554975754935
aF378.90909723940592
aF378.93870838621945
aF380.45574415083337
aF359.6338369774424
aF706.1374520410576
aF691.4438385848124
aF663.35939536578348
aF656.91496958210928
aF621.76218958794527
aF606.96211054968819
aF616.41758806644953
aF648.07737486154372
aF654.06874296057526
aF655.02273594238409
aF695.69502984626297
aF456.42230384340291
aF462.40117589033377
aF491.35037279378247
aF500.39387974499749
aF532.95841832204621
aF518.87492549475508
aF515.92249550214797
aF482.57171512889414
aF479.16906225630208
aF215.46604132238568
aF193.26024824146589
aF173.03021755682019
aF184.04992068038797
aF175.26032890371465
aF180.8191433454476
aF180.67563744640321
aF217.3713027741106
aF222.02133223869779
aF241.16222306490289
aF244.9190406054644
aF236.32574246409985
aF239.86401898481733
aF230.72274053277948
aF218.15472143726885
aF222.00098884763324
aF594.44724491888587
aF604.93366173383833
aF621.18377414264512
aF610.57804553685048
aF602.5996320274495
aF583.97807481689176
aF592.94222194208817
aF575.72655348733213
aF562.07931224600588
aF558.50471387790435
aF554.52841736116591
aF561.26466111151149
aF559.21356939630027
aF576.58750052692028
aF564.31155427785973
aF694.37107586665866
aF717.90902886569688
aF701.70793806517406
aF692.31673454011502
aF671.11843625231461
aF659.48800932871598
aF672.89572264657727
aF676.22071551464455
aF132.64511850125885
aF155.66185031456087
aF155.12899443219933
aF146.28799437370614
aF143.70417111162325
aF131.5497799659943
aF100.92343378000672
aF88.348376045913994
aF88.708760117574997
aF86.574942862580698
aF89.669624229972641
aF101.69619206422998
aF218.86314749713364
aF191.98473893037786
aF178.16953907568444
aF171.40058401176381
aF183.33744897324928
aF536.75606670754382
aF551.80043289823527
aF564.04424328693642
aF654.74695481887409
aF661.1775372728564
aF140.46181283113668
aF82.791181999403577
aF83.113610887117304
aF67.571123847121967
aF67.773646976787219
aF88.709520093122492
aF87.004169161435343
aF127.23102157192321
aF127.18607793442266
aF129.49316849832596
aF139.6350223465333
aF398.86095805835993
aF425.47581624655055
aF207.67181354111321
aF213.41124701892187
aF220.69104826638403
aF190.22988870503198
aF179.50937341900249
aF159.42928380951875
aF152.93879992379954
aF161.84785131369992
aF687.62960313658186
aF707.92397705413157
aF629.9134999953352
aF636.68267789711933
aF651.79682763203061
aF512.71286674550663
aF498.78636102974798
aF480.27574324767625
aF479.53203128828153
aF482.58149677519179
aF503.12580521286799
aF633.27552299210163
aF642.00516635147358
aF629.54502621886797
aF632.84307117807782
aF549.89204294608464
aF547.01601562880353
aF528.10256316072582
aF517.01481430471961
aF520.92692951644335
aF519.63463147228811
aF530.65966547641221
aF541.34166564631414
aF9.8186015116684526
aF90.305818746480824
aF90.005672145466377
aF77.775536017733543
aF34.391612851806109
aF24.618159673478861
aF0
aF0.35308073135815943
asS'node_x'
p4
(lp5
F120.83431512607947
aF144.28293488875738
aF145.22799544653967
aF158.34765981783744
aF137.88987820641924
aF173.43527417817182
aF170.2220681420817
aF159.98205870206399
aF120.60082958699476
aF125.32613221614686
aF50.310567315283826
aF37.001893096702787
aF56.781451620418622
aF79.751979605458814
aF77.706201668440258
aF80.652566635385639
aF63.708188674535521
aF39.158854481433934
aF49.810241212222991
aF483.50417399503954
aF444.60101449335525
aF439.26419942860525
aF418.78417203603829
aF429.49115695820075
aF434.58336792027342
aF443.87832078439584
aF456.35312615748074
aF486.47277757622356
aF27.406750539638505
aF50.588526261839192
aF74.526351191396444
aF88.257523818902968
aF77.884095402652036
aF68.311188941881596
aF70.779464461789033
aF49.054192877686177
aF47.575451287816342
aF21.514021115559189
aF0
aF9.3060648572450546
aF19.857385871694241
aF29.430291600133366
aF554.18362706655569
aF509.61009659754609
aF524.80890296936093
aF541.30855857797553
aF538.86251796198178
aF560.76570017761219
aF557.69703094878344
aF568.82651615799637
aF315.43898416854847
aF326.49063659083134
aF304.83206643117023
aF295.83731138139723
aF245.12646360143432
aF229.82759867675347
aF276.86938582111895
aF273.51164055899181
aF524.25298466060235
aF491.29814821950072
aF478.86781562158228
aF478.78998706307482
aF494.38905386004552
aF512.64541049741729
aF520.45050344575054
aF539.81869747405938
aF540.97500758429408
aF546.04498270723229
aF536.1496365621739
aF31.998632186596861
aF32.965929292700928
aF36.612750580823359
aF54.891330769220254
aF92.771577396068423
aF109.80490300271794
aF44.851453629595717
aF112.50666422145353
aF79.807571397325574
aF95.773534224001864
aF119.43340188245793
aF114.36343016724723
aF121.32352292701343
aF122.61325258436983
aF98.897793014589453
aF97.663655198644392
aF640.61781554775359
aF594.22086675658409
aF582.36868723517114
aF607.92981388876126
aF590.64075246874825
aF573.9854384382013
aF579.08876892573596
aF554.52829643482619
aF550.06983140693308
aF592.30850756901737
aF602.08155254506516
aF598.5570300517636
aF624.89644311157997
aF751.83486236704732
aF717.77929552577541
aF725.13965620929184
aF838.06894707072399
aF859.98325798239466
aF862.80732448603317
aF865.97606053897437
aF855.49143569441014
aF842.93879387486356
aF839.14742912193049
aF373.04322290473385
aF371.82020291864501
aF393.46765700292622
aF395.96928887787857
aF402.31787470296138
aF414.54807524755188
aF130.10702667765574
aF180.12852694151169
aF192.79233925871733
aF169.99970094173366
aF188.72301938199624
aF169.28812590567438
aF664.03309940348061
aF695.15341389722448
aF694.18611578159619
aF661.79830731662844
aF654.82709026321584
aF141.38104306399472
aF164.68512490648831
aF104.22348685884154
aF124.83692441311821
aF141.24762275020169
aF144.68319583116033
aF161.73875954895794
aF153.51117334351133
aF130.10702667765574
aF125.01481816094498
aF119.72247921832481
aF335.35197172123503
aF321.88763445254096
aF295.57047068953449
aF273.92301994532539
aF272.55546144795801
aF266.39588906779392
aF289.85563256634811
aF313.14860149788097
aF321.34283468461092
aF334.35131906610479
aF352.72997309589681
aF105.13519228160894
aF105.13519228160894
aF109.50470731116029
aF139.59098719462526
aF80.752631860016734
aF80.886052160711458
aF53.924033629331802
aF53.968507061088772
aF27.384513824424147
aF13.642224157664801
aF13.953538159602836
aF40.693187839921791
aF40.75989798673961
aF103.73427907151496
aF126.83822906688103
aF146.67338218596245
aF146.06187241080386
aF654.24893510477636
aF651.16914705481281
aF646.86633850541932
aF662.65442169793778
aF693.76361775508076
aF669.51445515045498
aF174.85842426075291
aF195.56081099152101
aF325.4121554112869
aF321.09823070779436
aF340.16622285483891
aF339.38793744858526
aF326.45728150371326
aF349.49452942475148
aF367.45068608312715
aF369.47422822700662
aF363.43695690384601
aF236.37631334070065
aF214.71774625518057
aF217.11931217791073
aF367.96213080099676
aF404.34141695985954
aF412.80249206479562
aF311.16953298236274
aF320.49783912734586
aF317.99620754904328
aF321.09823070779436
aF348.09361567699767
aF291.65680722301659
aF259.78046392427387
aF211.93815607600317
aF196.40580638344125
aF205.12260101023671
aF179.02780928898696
aF207.17949771892214
aF214.55097084294269
aF226.77004940807254
aF237.26578223081785
aF271.3546783805055
aF291.72351739566301
aF314.01583377077787
aF310.40236597516395
aF309.8464478543039
aF263.21603764496552
aF357.97784052633705
aF357.38856727400741
aF360.92420679324067
aF688.58245776230319
aF703.84797863426354
aF718.31297726434741
aF653.63742484045702
aF637.97164392242587
aF653.23716357697003
aF96.974316960960479
aF104.97953525778195
aF106.72511759426686
aF77.961923910623725
aF68.222242077343353
aF40.682069482413645
aF37.824651562554358
aF52.167333080006649
aF245.86027544504657
aF243.79226024953419
aF225.50255626209841
aF156.17957966921847
aF425.68867631115114
aF422.2308649823928
aF416.9829970199234
aF404.44148223598353
aF399.01572059603797
aF367.70640844275152
aF199.08533124979704
aF226.36978841362185
aF208.16903181425874
aF180.89569379133818
aF144.95003645959386
aF136.84475242435036
aF111.58384042767062
aF105.52433483981829
aF94.53939641433287
aF89.847449089477848
aF103.55638533134301
aF97.75260206845175
aF66.776855515836075
aF40.259571889728463
aF37.769059774391145
aF3.1020216038937267
aF8.472188072568219
aF9.7396807865950539
aF22.258951058765145
aF66.899157456119113
aF79.551849155246884
aF541.17513818162706
aF540.50803619260432
aF539.07376692378682
aF518.09340983814411
aF517.64867519725556
aF538.58455880106033
aF540.2411953979107
aF540.17448520048072
aF568.18165087534953
aF570.66104670524987
aF580.65645869288858
aF583.41381375090054
aF600.04689129265512
aF619.10377345038421
aF619.59298163536494
aF602.15938111828427
aF159.69298134837982
aF152.24368034217889
aF162.18349394172611
aF148.58574003127526
aF161.95000838657916
aF168.91010166715881
aF208.05784820778089
aF207.61311378299561
aF229.04931340775622
aF231.53982627469901
aF238.64445901348611
aF247.69480505939404
aF243.64772155318516
aF237.43255764824764
aF198.3737561794438
aF140.51381102715982
aF136.2777160959549
aF112.4065989898436
aF676.60797442220201
aF659.55239687094593
aF660.19726224587589
aF659.15213560193524
aF659.40785808050748
aF658.16260080616132
aF661.25350725654812
aF674.78456193780403
aF708.78453462444384
aF719.83619389644628
aF720.19198172218739
aF726.68510959672051
aF725.15077457899883
aF727.39668525904847
aF716.44509118196686
aF354.72016010337131
aF370.8417869332481
aF391.72207387662399
aF393.41206518377237
aF373.93269198580282
aF375.53373633632725
aF380.85943250141707
aF483.50417399503954
aF464.45841427193625
aF460.13337025877019
aF459.74422748219695
aF484.1268024594645
aF499.30337149009023
aF511.98942690509097
aF498.44725732915765
aF501.32691405443899
aF503.17256277331279
aF866.02053402687034
aF839.55880887403362
aF818.27824583302765
aF812.73017857382229
aF819.54574016235802
aF866.34296681980538
aF159.62627118959884
aF180.56214298735023
aF184.62034445030108
aF177.79367131931718
aF142.69300948128034
aF142.93761339038946
aF162.15013886246817
aF164.97420226199662
aF173.30185385716729
aF142.62629932415962
aF139.77999930475605
aF119.72247921832481
aF119.56682219153166
aF116.95400781611225
aF98.241809851759825
aF88.279760535183556
aF83.243144144144949
aF88.668903084276764
aF118.2548558227992
aF214.61768100790675
aF214.60656264654901
aF211.63796033782197
aF267.12970093560864
aF267.54108031701099
aF303.49786295453282
aF303.44227114264379
aF303.13095699899486
aF98.619834046817644
aF106.29150159929125
aF115.29737232174359
aF128.19466889061346
aF159.49285087169039
aF183.15272090577497
aF183.57521859184018
aF206.16772690431662
aF203.88846298850612
aF193.08141662701243
aF179.09451945022056
aF141.7034754895341
aF135.05469656740343
aF121.45694323657381
aF478.44531773712561
aF438.63045264228646
aF440.64287664936626
aF493.21050710331343
aF459.75534584712966
aF459.21054596196944
aF469.40608676701652
aF469.95088666152037
aF668.73616934198617
aF684.1239917945602
aF626.79768402944671
aF607.09593631744247
aF619.37061427799313
aF620.60475310835011
aF603.32680970953777
aF595.76631982448714
aF577.5766709990537
aF569.20454063352531
aF581.72382193897693
aF594.04297287828342
aF613.52235282957372
aF819.8236994458432
aF800.75569289155749
aF820.13501384304323
aF820.13501384304323
aF724.69492142283855
aF736.09125043670861
aF717.91271596066906
aF706.84993835358466
aF717.62363835262909
aF695.46472823443298
aF691.49547045761039
aF665.66749959055232
aF645.50989757341176
aF640.82906454413717
aF713.37642119950431
aF718.63540998291217
aF678.3980318064896
aF669.4811000441083
aF669.77017762940147
aF727.57457917493832
aF731.36594326025988
aF701.34634554586933
aF732.96698851122881
aF756.12655325851779
aF771.79233709141931
aF771.31424716039805
aF756.66023502906523
aF749.0997433175354
aF731.01015542635025
aF726.8296484030368
aF719.16909172137844
aF711.14162893940045
aF698.38885932924552
aF761.56343631833045
aF794.85183791578299
aF788.41430119745246
aF807.21546647594391
aF815.62095509535607
aF836.60132201292311
aF884.84393834788409
aF882.33118617451942
aF833.15462681682038
aF833.02120635835797
aF845.31812543155968
aF845.02904776564446
aF816.01009808894003
aF816.01009808894003
aF818.01140492039883
aF761.21876683966866
aF891.57055373084381
aF878.05061280157543
aF869.5339396345255
aF892.07088049724234
aF875.35996669741462
aF875.2043094851
aF858.77135543029851
aF844.48424754700602
aF833.37699424949801
aF826.1834078822327
aF825.54966070915395
aF847.76416722818112
aF855.99176243185116
aF835.64514205466548
aF834.77790906870553
aF844.45089243218331
aF843.58365943569208
aF854.97999058307744
aF861.65101378932991
aF865.49797053744328
aF874.15918248842229
aF506.30794193295714
aF447.84757701283797
aF426.88945967053115
aF420.06278393289148
aF393.13410608661314
aF408.3217913041359
aF427.34531261348616
aF452.49505352482925
aF479.99077052346331
aF480.0574807162601
aF515.06921427944235
aF423.43164833495337
aF430.86983415795498
aF449.6153970210375
aF458.52120733010452
aF450.86065388573513
aF437.05164486371854
aF440.04248495702461
aF417.03858884119262
aF414.17005086317511
aF354.16424194427287
aF365.87187848134437
aF376.53438905658663
aF386.81887544347768
aF407.67692618526092
aF407.59909763679354
aF432.72660103571604
aF428.65727962140261
aF424.06539510585986
aF409.51145626685991
aF388.95360128664123
aF380.2701592280975
aF376.60109923826275
aF357.35521218563247
aF370.38593403093876
aF366.56121701185521
aF482.18108850851849
aF482.88154553011577
aF463.52447160308975
aF454.14057153202265
aF462.16803106313682
aF459.28837451683097
aF434.53889446149668
aF418.90647404302149
aF399.53828370337305
aF388.33097291512803
aF414.41465487760553
aF434.43882918022501
aF438.08565277496291
aF448.40349525353361
aF464.64742647910759
aF782.81064234792848
aF745.00818313432887
aF735.41302987537779
aF750.94539275695479
aF759.12851322463393
aF782.92182605485027
aF784.4672795827455
aF806.57060095194629
aF414.50360179031281
aF404.31918023136149
aF385.92940634461678
aF364.08182197742036
aF352.22964675390392
aF352.58543437348811
aF352.98569544679424
aF353.34148307005717
aF365.87187848134437
aF394.12364047118916
aF409.18902370701261
aF408.8443544190223
aF109.24898505765232
aF91.77092512208948
aF93.449797270164837
aF105.70222858229612
aF111.29476309587398
aF650.16849390006894
aF664.51118925292712
aF44.695796621318905
aF193.63733464515568
aF192.2920130430646
aF235.44237100790835
aF235.88710545304744
aF277.4141855506943
aF277.5364875307742
aF303.56457312759966
aF315.98378393264318
aF324.07795189103001
aF323.76663773724124
aF317.88502392440819
aF277.44754063658769
aF254.46588713716943
aF171.22272053849218
aF183.7197572740391
aF264.30563708292948
aF259.00217861779544
aF243.79226024953419
aF228.93812979721869
aF251.43057447280015
aF259.48026816291298
aF260.6254594012031
aF271.29908657098161
aF814.35346077191969
aF825.73867302430585
aF801.71187279839387
aF788.84791765962541
aF778.30770223492937
aF634.08021508200443
aF633.72442730326475
aF657.90687833023594
aF658.69628249390234
aF661.56482157707933
aF659.99713161199691
aF208.43587246863038
aF203.83287118627632
aF180.22859218342126
aF178.49412800379878
aF510.1882516246169
aF499.72586938635095
aF486.12810824602428
aF489.75269540574868
aF506.89721532421561
aF509.94364757499312
aF534.67089383696737
aF531.44656760584644
aF75.304636272354287
aF74.215037159739012
aF51.767072195671489
aF51.933847564576133
aF52.523120532348457
aF20.50225059632368
aF20.835801316996211
aF46.97505996509414
as.